

Microchip MPLAB XC8 Assembler V2.32 build 20210201212658 
                                                                                               Sat Jun 19 09:55:33 2021

Microchip MPLAB XC8 C Compiler v2.32 (Free license) build 20210201212658 Og1 
     1                           	processor	16F1827
     2                           	pagewidth 120
     3                           	opt	flic
     4                           	psect	idataBANK0,global,class=CODE,delta=2,noexec
     5                           	psect	stringtext1,global,class=STRCODE,delta=2,noexec
     6                           	psect	nvCOMMON,global,class=COMMON,space=1,delta=1,noexec
     7                           	psect	nvBANK0,global,class=BANK0,space=1,delta=1,noexec
     8                           	psect	cinit,global,class=CODE,merge=1,delta=2
     9                           	psect	bssBANK0,global,class=BANK0,space=1,delta=1,noexec
    10                           	psect	dataBANK0,global,class=BANK0,space=1,delta=1,noexec
    11                           	psect	clrtext,global,class=CODE,delta=2
    12                           	psect	cstackCOMMON,global,class=COMMON,space=1,delta=1,noexec
    13                           	psect	cstackBANK0,global,class=BANK0,space=1,delta=1,noexec
    14                           	psect	maintext,global,class=CODE,merge=1,split=1,delta=2
    15                           	psect	text1,local,class=CODE,merge=1,delta=2
    16                           	psect	text2,local,class=CODE,merge=1,delta=2
    17                           	psect	text3,local,class=CODE,merge=1,delta=2
    18                           	psect	text4,local,class=CODE,merge=1,delta=2
    19                           	psect	text5,local,class=CODE,merge=1,delta=2
    20                           	psect	text6,local,class=CODE,merge=1,delta=2
    21                           	psect	text7,local,class=CODE,merge=1,delta=2
    22                           	psect	text8,local,class=CODE,merge=1,delta=2
    23                           	psect	text9,local,class=CODE,merge=1,delta=2
    24                           	psect	text10,local,class=CODE,merge=1,delta=2
    25                           	psect	text11,local,class=CODE,merge=1,delta=2
    26                           	psect	text12,local,class=CODE,merge=1,delta=2
    27                           	psect	intentry,global,class=CODE,delta=2
    28                           	psect	text14,local,class=CODE,merge=1,delta=2
    29                           	psect	text15,local,class=CODE,merge=1,delta=2
    30                           	psect	text16,local,class=CODE,merge=1,delta=2
    31                           	psect	text17,local,class=CODE,merge=1,delta=2
    32                           	psect	text18,local,class=CODE,merge=1,delta=2
    33                           	psect	text19,local,class=CODE,merge=1,delta=2,group=1
    34                           	psect	text20,local,class=CODE,merge=1,delta=2
    35                           	psect	config,global,abs,ovrld,class=CONFIG,space=4,delta=2,noexec
    36                           	dabs	1,0x7E,2
    37  0000                     
    38                           ; Version 2.20
    39                           ; Generated 12/02/2020 GMT
    40                           ; 
    41                           ; Copyright © 2020, Microchip Technology Inc. and its subsidiaries ("Microchip")
    42                           ; All rights reserved.
    43                           ; 
    44                           ; This software is developed by Microchip Technology Inc. and its subsidiaries ("Microch
      +                          ip").
    45                           ; 
    46                           ; Redistribution and use in source and binary forms, with or without modification, are
    47                           ; permitted provided that the following conditions are met:
    48                           ; 
    49                           ;     1. Redistributions of source code must retain the above copyright notice, this lis
      +                          t of
    50                           ;        conditions and the following disclaimer.
    51                           ; 
    52                           ;     2. Redistributions in binary form must reproduce the above copyright notice, this 
      +                          list
    53                           ;        of conditions and the following disclaimer in the documentation and/or other
    54                           ;        materials provided with the distribution.
    55                           ; 
    56                           ;     3. Microchip's name may not be used to endorse or promote products derived from th
      +                          is
    57                           ;        software without specific prior written permission.
    58                           ; 
    59                           ; THIS SOFTWARE IS PROVIDED BY MICROCHIP "AS IS" AND ANY EXPRESS OR IMPLIED WARRANTIES,
    60                           ; INCLUDING, BUT NOT LIMITED TO, THE IMPLIED WARRANTIES OF MERCHANTABILITY AND FITNESS F
      +                          OR
    61                           ; PURPOSE ARE DISCLAIMED.  IN NO EVENT SHALL MICROCHIP BE LIABLE FOR ANY DIRECT, INDIREC
      +                          T,
    62                           ; INCIDENTAL, SPECIAL, EXEMPLARY, OR CONSEQUENTIAL DAMAGES (INCLUDING BUT NOT LIMITED TO
    63                           ; PROCUREMENT OF SUBSTITUTE GOODS OR SERVICES; LOSS OF USE, DATA OR PROFITS; OR BUSINESS
    64                           ; INTERRUPTION) HOWSOEVER CAUSED AND ON ANY THEORY OF LIABILITY, WHETHER IN CONTRACT, ST
      +                          RICT
    65                           ; LIABILITY, OR TORT (INCLUDING NEGLIGENCE OR OTHERWISE) ARISING IN ANY WAY OUT OF THE U
      +                          SE OF
    66                           ; THIS SOFTWARE, EVEN IF ADVISED OF THE POSSIBILITY OF SUCH DAMAGE.
    67                           ; 
    68                           ; 
    69                           ; Code-generator required, PIC16F1827 Definitions
    70                           ; 
    71                           ; SFR Addresses
    72  0000                     	;# 
    73  0001                     	;# 
    74  0002                     	;# 
    75  0003                     	;# 
    76  0004                     	;# 
    77  0005                     	;# 
    78  0006                     	;# 
    79  0007                     	;# 
    80  0008                     	;# 
    81  0009                     	;# 
    82  000A                     	;# 
    83  000B                     	;# 
    84  000C                     	;# 
    85  000D                     	;# 
    86  0011                     	;# 
    87  0012                     	;# 
    88  0013                     	;# 
    89  0014                     	;# 
    90  0015                     	;# 
    91  0016                     	;# 
    92  0016                     	;# 
    93  0017                     	;# 
    94  0018                     	;# 
    95  0019                     	;# 
    96  001A                     	;# 
    97  001B                     	;# 
    98  001C                     	;# 
    99  001E                     	;# 
   100  001F                     	;# 
   101  008C                     	;# 
   102  008D                     	;# 
   103  0091                     	;# 
   104  0092                     	;# 
   105  0093                     	;# 
   106  0094                     	;# 
   107  0095                     	;# 
   108  0096                     	;# 
   109  0097                     	;# 
   110  0098                     	;# 
   111  0099                     	;# 
   112  009A                     	;# 
   113  009B                     	;# 
   114  009B                     	;# 
   115  009C                     	;# 
   116  009D                     	;# 
   117  009E                     	;# 
   118  010C                     	;# 
   119  010D                     	;# 
   120  0111                     	;# 
   121  0112                     	;# 
   122  0113                     	;# 
   123  0114                     	;# 
   124  0115                     	;# 
   125  0116                     	;# 
   126  0117                     	;# 
   127  0118                     	;# 
   128  0119                     	;# 
   129  011A                     	;# 
   130  011B                     	;# 
   131  011D                     	;# 
   132  011E                     	;# 
   133  018C                     	;# 
   134  018D                     	;# 
   135  0191                     	;# 
   136  0191                     	;# 
   137  0192                     	;# 
   138  0193                     	;# 
   139  0193                     	;# 
   140  0193                     	;# 
   141  0194                     	;# 
   142  0195                     	;# 
   143  0196                     	;# 
   144  0199                     	;# 
   145  019A                     	;# 
   146  019B                     	;# 
   147  019B                     	;# 
   148  019B                     	;# 
   149  019B                     	;# 
   150  019C                     	;# 
   151  019C                     	;# 
   152  019D                     	;# 
   153  019E                     	;# 
   154  019F                     	;# 
   155  020C                     	;# 
   156  020D                     	;# 
   157  0211                     	;# 
   158  0211                     	;# 
   159  0212                     	;# 
   160  0212                     	;# 
   161  0213                     	;# 
   162  0213                     	;# 
   163  0214                     	;# 
   164  0214                     	;# 
   165  0215                     	;# 
   166  0215                     	;# 
   167  0215                     	;# 
   168  0216                     	;# 
   169  0216                     	;# 
   170  0217                     	;# 
   171  0217                     	;# 
   172  0219                     	;# 
   173  021A                     	;# 
   174  021B                     	;# 
   175  021C                     	;# 
   176  021D                     	;# 
   177  021E                     	;# 
   178  021F                     	;# 
   179  0291                     	;# 
   180  0291                     	;# 
   181  0292                     	;# 
   182  0293                     	;# 
   183  0294                     	;# 
   184  0295                     	;# 
   185  0295                     	;# 
   186  0296                     	;# 
   187  0298                     	;# 
   188  0298                     	;# 
   189  0299                     	;# 
   190  029A                     	;# 
   191  029B                     	;# 
   192  029C                     	;# 
   193  029C                     	;# 
   194  029D                     	;# 
   195  029E                     	;# 
   196  029E                     	;# 
   197  0311                     	;# 
   198  0311                     	;# 
   199  0312                     	;# 
   200  0313                     	;# 
   201  0318                     	;# 
   202  0318                     	;# 
   203  0319                     	;# 
   204  031A                     	;# 
   205  0394                     	;# 
   206  0395                     	;# 
   207  0396                     	;# 
   208  039A                     	;# 
   209  039C                     	;# 
   210  039D                     	;# 
   211  039E                     	;# 
   212  039F                     	;# 
   213  0415                     	;# 
   214  0416                     	;# 
   215  0417                     	;# 
   216  041C                     	;# 
   217  041D                     	;# 
   218  041E                     	;# 
   219  0FE4                     	;# 
   220  0FE5                     	;# 
   221  0FE6                     	;# 
   222  0FE7                     	;# 
   223  0FE8                     	;# 
   224  0FE9                     	;# 
   225  0FEA                     	;# 
   226  0FEB                     	;# 
   227  0FED                     	;# 
   228  0FEE                     	;# 
   229  0FEF                     	;# 
   230  0000                     	;# 
   231  0001                     	;# 
   232  0002                     	;# 
   233  0003                     	;# 
   234  0004                     	;# 
   235  0005                     	;# 
   236  0006                     	;# 
   237  0007                     	;# 
   238  0008                     	;# 
   239  0009                     	;# 
   240  000A                     	;# 
   241  000B                     	;# 
   242  000C                     	;# 
   243  000D                     	;# 
   244  0011                     	;# 
   245  0012                     	;# 
   246  0013                     	;# 
   247  0014                     	;# 
   248  0015                     	;# 
   249  0016                     	;# 
   250  0016                     	;# 
   251  0017                     	;# 
   252  0018                     	;# 
   253  0019                     	;# 
   254  001A                     	;# 
   255  001B                     	;# 
   256  001C                     	;# 
   257  001E                     	;# 
   258  001F                     	;# 
   259  008C                     	;# 
   260  008D                     	;# 
   261  0091                     	;# 
   262  0092                     	;# 
   263  0093                     	;# 
   264  0094                     	;# 
   265  0095                     	;# 
   266  0096                     	;# 
   267  0097                     	;# 
   268  0098                     	;# 
   269  0099                     	;# 
   270  009A                     	;# 
   271  009B                     	;# 
   272  009B                     	;# 
   273  009C                     	;# 
   274  009D                     	;# 
   275  009E                     	;# 
   276  010C                     	;# 
   277  010D                     	;# 
   278  0111                     	;# 
   279  0112                     	;# 
   280  0113                     	;# 
   281  0114                     	;# 
   282  0115                     	;# 
   283  0116                     	;# 
   284  0117                     	;# 
   285  0118                     	;# 
   286  0119                     	;# 
   287  011A                     	;# 
   288  011B                     	;# 
   289  011D                     	;# 
   290  011E                     	;# 
   291  018C                     	;# 
   292  018D                     	;# 
   293  0191                     	;# 
   294  0191                     	;# 
   295  0192                     	;# 
   296  0193                     	;# 
   297  0193                     	;# 
   298  0193                     	;# 
   299  0194                     	;# 
   300  0195                     	;# 
   301  0196                     	;# 
   302  0199                     	;# 
   303  019A                     	;# 
   304  019B                     	;# 
   305  019B                     	;# 
   306  019B                     	;# 
   307  019B                     	;# 
   308  019C                     	;# 
   309  019C                     	;# 
   310  019D                     	;# 
   311  019E                     	;# 
   312  019F                     	;# 
   313  020C                     	;# 
   314  020D                     	;# 
   315  0211                     	;# 
   316  0211                     	;# 
   317  0212                     	;# 
   318  0212                     	;# 
   319  0213                     	;# 
   320  0213                     	;# 
   321  0214                     	;# 
   322  0214                     	;# 
   323  0215                     	;# 
   324  0215                     	;# 
   325  0215                     	;# 
   326  0216                     	;# 
   327  0216                     	;# 
   328  0217                     	;# 
   329  0217                     	;# 
   330  0219                     	;# 
   331  021A                     	;# 
   332  021B                     	;# 
   333  021C                     	;# 
   334  021D                     	;# 
   335  021E                     	;# 
   336  021F                     	;# 
   337  0291                     	;# 
   338  0291                     	;# 
   339  0292                     	;# 
   340  0293                     	;# 
   341  0294                     	;# 
   342  0295                     	;# 
   343  0295                     	;# 
   344  0296                     	;# 
   345  0298                     	;# 
   346  0298                     	;# 
   347  0299                     	;# 
   348  029A                     	;# 
   349  029B                     	;# 
   350  029C                     	;# 
   351  029C                     	;# 
   352  029D                     	;# 
   353  029E                     	;# 
   354  029E                     	;# 
   355  0311                     	;# 
   356  0311                     	;# 
   357  0312                     	;# 
   358  0313                     	;# 
   359  0318                     	;# 
   360  0318                     	;# 
   361  0319                     	;# 
   362  031A                     	;# 
   363  0394                     	;# 
   364  0395                     	;# 
   365  0396                     	;# 
   366  039A                     	;# 
   367  039C                     	;# 
   368  039D                     	;# 
   369  039E                     	;# 
   370  039F                     	;# 
   371  0415                     	;# 
   372  0416                     	;# 
   373  0417                     	;# 
   374  041C                     	;# 
   375  041D                     	;# 
   376  041E                     	;# 
   377  0FE4                     	;# 
   378  0FE5                     	;# 
   379  0FE6                     	;# 
   380  0FE7                     	;# 
   381  0FE8                     	;# 
   382  0FE9                     	;# 
   383  0FEA                     	;# 
   384  0FEB                     	;# 
   385  0FED                     	;# 
   386  0FEE                     	;# 
   387  0FEF                     	;# 
   388  0000                     	;# 
   389  0001                     	;# 
   390  0002                     	;# 
   391  0003                     	;# 
   392  0004                     	;# 
   393  0005                     	;# 
   394  0006                     	;# 
   395  0007                     	;# 
   396  0008                     	;# 
   397  0009                     	;# 
   398  000A                     	;# 
   399  000B                     	;# 
   400  000C                     	;# 
   401  000D                     	;# 
   402  0011                     	;# 
   403  0012                     	;# 
   404  0013                     	;# 
   405  0014                     	;# 
   406  0015                     	;# 
   407  0016                     	;# 
   408  0016                     	;# 
   409  0017                     	;# 
   410  0018                     	;# 
   411  0019                     	;# 
   412  001A                     	;# 
   413  001B                     	;# 
   414  001C                     	;# 
   415  001E                     	;# 
   416  001F                     	;# 
   417  008C                     	;# 
   418  008D                     	;# 
   419  0091                     	;# 
   420  0092                     	;# 
   421  0093                     	;# 
   422  0094                     	;# 
   423  0095                     	;# 
   424  0096                     	;# 
   425  0097                     	;# 
   426  0098                     	;# 
   427  0099                     	;# 
   428  009A                     	;# 
   429  009B                     	;# 
   430  009B                     	;# 
   431  009C                     	;# 
   432  009D                     	;# 
   433  009E                     	;# 
   434  010C                     	;# 
   435  010D                     	;# 
   436  0111                     	;# 
   437  0112                     	;# 
   438  0113                     	;# 
   439  0114                     	;# 
   440  0115                     	;# 
   441  0116                     	;# 
   442  0117                     	;# 
   443  0118                     	;# 
   444  0119                     	;# 
   445  011A                     	;# 
   446  011B                     	;# 
   447  011D                     	;# 
   448  011E                     	;# 
   449  018C                     	;# 
   450  018D                     	;# 
   451  0191                     	;# 
   452  0191                     	;# 
   453  0192                     	;# 
   454  0193                     	;# 
   455  0193                     	;# 
   456  0193                     	;# 
   457  0194                     	;# 
   458  0195                     	;# 
   459  0196                     	;# 
   460  0199                     	;# 
   461  019A                     	;# 
   462  019B                     	;# 
   463  019B                     	;# 
   464  019B                     	;# 
   465  019B                     	;# 
   466  019C                     	;# 
   467  019C                     	;# 
   468  019D                     	;# 
   469  019E                     	;# 
   470  019F                     	;# 
   471  020C                     	;# 
   472  020D                     	;# 
   473  0211                     	;# 
   474  0211                     	;# 
   475  0212                     	;# 
   476  0212                     	;# 
   477  0213                     	;# 
   478  0213                     	;# 
   479  0214                     	;# 
   480  0214                     	;# 
   481  0215                     	;# 
   482  0215                     	;# 
   483  0215                     	;# 
   484  0216                     	;# 
   485  0216                     	;# 
   486  0217                     	;# 
   487  0217                     	;# 
   488  0219                     	;# 
   489  021A                     	;# 
   490  021B                     	;# 
   491  021C                     	;# 
   492  021D                     	;# 
   493  021E                     	;# 
   494  021F                     	;# 
   495  0291                     	;# 
   496  0291                     	;# 
   497  0292                     	;# 
   498  0293                     	;# 
   499  0294                     	;# 
   500  0295                     	;# 
   501  0295                     	;# 
   502  0296                     	;# 
   503  0298                     	;# 
   504  0298                     	;# 
   505  0299                     	;# 
   506  029A                     	;# 
   507  029B                     	;# 
   508  029C                     	;# 
   509  029C                     	;# 
   510  029D                     	;# 
   511  029E                     	;# 
   512  029E                     	;# 
   513  0311                     	;# 
   514  0311                     	;# 
   515  0312                     	;# 
   516  0313                     	;# 
   517  0318                     	;# 
   518  0318                     	;# 
   519  0319                     	;# 
   520  031A                     	;# 
   521  0394                     	;# 
   522  0395                     	;# 
   523  0396                     	;# 
   524  039A                     	;# 
   525  039C                     	;# 
   526  039D                     	;# 
   527  039E                     	;# 
   528  039F                     	;# 
   529  0415                     	;# 
   530  0416                     	;# 
   531  0417                     	;# 
   532  041C                     	;# 
   533  041D                     	;# 
   534  041E                     	;# 
   535  0FE4                     	;# 
   536  0FE5                     	;# 
   537  0FE6                     	;# 
   538  0FE7                     	;# 
   539  0FE8                     	;# 
   540  0FE9                     	;# 
   541  0FEA                     	;# 
   542  0FEB                     	;# 
   543  0FED                     	;# 
   544  0FEE                     	;# 
   545  0FEF                     	;# 
   546  0000                     	;# 
   547  0001                     	;# 
   548  0002                     	;# 
   549  0003                     	;# 
   550  0004                     	;# 
   551  0005                     	;# 
   552  0006                     	;# 
   553  0007                     	;# 
   554  0008                     	;# 
   555  0009                     	;# 
   556  000A                     	;# 
   557  000B                     	;# 
   558  000C                     	;# 
   559  000D                     	;# 
   560  0011                     	;# 
   561  0012                     	;# 
   562  0013                     	;# 
   563  0014                     	;# 
   564  0015                     	;# 
   565  0016                     	;# 
   566  0016                     	;# 
   567  0017                     	;# 
   568  0018                     	;# 
   569  0019                     	;# 
   570  001A                     	;# 
   571  001B                     	;# 
   572  001C                     	;# 
   573  001E                     	;# 
   574  001F                     	;# 
   575  008C                     	;# 
   576  008D                     	;# 
   577  0091                     	;# 
   578  0092                     	;# 
   579  0093                     	;# 
   580  0094                     	;# 
   581  0095                     	;# 
   582  0096                     	;# 
   583  0097                     	;# 
   584  0098                     	;# 
   585  0099                     	;# 
   586  009A                     	;# 
   587  009B                     	;# 
   588  009B                     	;# 
   589  009C                     	;# 
   590  009D                     	;# 
   591  009E                     	;# 
   592  010C                     	;# 
   593  010D                     	;# 
   594  0111                     	;# 
   595  0112                     	;# 
   596  0113                     	;# 
   597  0114                     	;# 
   598  0115                     	;# 
   599  0116                     	;# 
   600  0117                     	;# 
   601  0118                     	;# 
   602  0119                     	;# 
   603  011A                     	;# 
   604  011B                     	;# 
   605  011D                     	;# 
   606  011E                     	;# 
   607  018C                     	;# 
   608  018D                     	;# 
   609  0191                     	;# 
   610  0191                     	;# 
   611  0192                     	;# 
   612  0193                     	;# 
   613  0193                     	;# 
   614  0193                     	;# 
   615  0194                     	;# 
   616  0195                     	;# 
   617  0196                     	;# 
   618  0199                     	;# 
   619  019A                     	;# 
   620  019B                     	;# 
   621  019B                     	;# 
   622  019B                     	;# 
   623  019B                     	;# 
   624  019C                     	;# 
   625  019C                     	;# 
   626  019D                     	;# 
   627  019E                     	;# 
   628  019F                     	;# 
   629  020C                     	;# 
   630  020D                     	;# 
   631  0211                     	;# 
   632  0211                     	;# 
   633  0212                     	;# 
   634  0212                     	;# 
   635  0213                     	;# 
   636  0213                     	;# 
   637  0214                     	;# 
   638  0214                     	;# 
   639  0215                     	;# 
   640  0215                     	;# 
   641  0215                     	;# 
   642  0216                     	;# 
   643  0216                     	;# 
   644  0217                     	;# 
   645  0217                     	;# 
   646  0219                     	;# 
   647  021A                     	;# 
   648  021B                     	;# 
   649  021C                     	;# 
   650  021D                     	;# 
   651  021E                     	;# 
   652  021F                     	;# 
   653  0291                     	;# 
   654  0291                     	;# 
   655  0292                     	;# 
   656  0293                     	;# 
   657  0294                     	;# 
   658  0295                     	;# 
   659  0295                     	;# 
   660  0296                     	;# 
   661  0298                     	;# 
   662  0298                     	;# 
   663  0299                     	;# 
   664  029A                     	;# 
   665  029B                     	;# 
   666  029C                     	;# 
   667  029C                     	;# 
   668  029D                     	;# 
   669  029E                     	;# 
   670  029E                     	;# 
   671  0311                     	;# 
   672  0311                     	;# 
   673  0312                     	;# 
   674  0313                     	;# 
   675  0318                     	;# 
   676  0318                     	;# 
   677  0319                     	;# 
   678  031A                     	;# 
   679  0394                     	;# 
   680  0395                     	;# 
   681  0396                     	;# 
   682  039A                     	;# 
   683  039C                     	;# 
   684  039D                     	;# 
   685  039E                     	;# 
   686  039F                     	;# 
   687  0415                     	;# 
   688  0416                     	;# 
   689  0417                     	;# 
   690  041C                     	;# 
   691  041D                     	;# 
   692  041E                     	;# 
   693  0FE4                     	;# 
   694  0FE5                     	;# 
   695  0FE6                     	;# 
   696  0FE7                     	;# 
   697  0FE8                     	;# 
   698  0FE9                     	;# 
   699  0FEA                     	;# 
   700  0FEB                     	;# 
   701  0FED                     	;# 
   702  0FEE                     	;# 
   703  0FEF                     	;# 
   704  0000                     	;# 
   705  0001                     	;# 
   706  0002                     	;# 
   707  0003                     	;# 
   708  0004                     	;# 
   709  0005                     	;# 
   710  0006                     	;# 
   711  0007                     	;# 
   712  0008                     	;# 
   713  0009                     	;# 
   714  000A                     	;# 
   715  000B                     	;# 
   716  000C                     	;# 
   717  000D                     	;# 
   718  0011                     	;# 
   719  0012                     	;# 
   720  0013                     	;# 
   721  0014                     	;# 
   722  0015                     	;# 
   723  0016                     	;# 
   724  0016                     	;# 
   725  0017                     	;# 
   726  0018                     	;# 
   727  0019                     	;# 
   728  001A                     	;# 
   729  001B                     	;# 
   730  001C                     	;# 
   731  001E                     	;# 
   732  001F                     	;# 
   733  008C                     	;# 
   734  008D                     	;# 
   735  0091                     	;# 
   736  0092                     	;# 
   737  0093                     	;# 
   738  0094                     	;# 
   739  0095                     	;# 
   740  0096                     	;# 
   741  0097                     	;# 
   742  0098                     	;# 
   743  0099                     	;# 
   744  009A                     	;# 
   745  009B                     	;# 
   746  009B                     	;# 
   747  009C                     	;# 
   748  009D                     	;# 
   749  009E                     	;# 
   750  010C                     	;# 
   751  010D                     	;# 
   752  0111                     	;# 
   753  0112                     	;# 
   754  0113                     	;# 
   755  0114                     	;# 
   756  0115                     	;# 
   757  0116                     	;# 
   758  0117                     	;# 
   759  0118                     	;# 
   760  0119                     	;# 
   761  011A                     	;# 
   762  011B                     	;# 
   763  011D                     	;# 
   764  011E                     	;# 
   765  018C                     	;# 
   766  018D                     	;# 
   767  0191                     	;# 
   768  0191                     	;# 
   769  0192                     	;# 
   770  0193                     	;# 
   771  0193                     	;# 
   772  0193                     	;# 
   773  0194                     	;# 
   774  0195                     	;# 
   775  0196                     	;# 
   776  0199                     	;# 
   777  019A                     	;# 
   778  019B                     	;# 
   779  019B                     	;# 
   780  019B                     	;# 
   781  019B                     	;# 
   782  019C                     	;# 
   783  019C                     	;# 
   784  019D                     	;# 
   785  019E                     	;# 
   786  019F                     	;# 
   787  020C                     	;# 
   788  020D                     	;# 
   789  0211                     	;# 
   790  0211                     	;# 
   791  0212                     	;# 
   792  0212                     	;# 
   793  0213                     	;# 
   794  0213                     	;# 
   795  0214                     	;# 
   796  0214                     	;# 
   797  0215                     	;# 
   798  0215                     	;# 
   799  0215                     	;# 
   800  0216                     	;# 
   801  0216                     	;# 
   802  0217                     	;# 
   803  0217                     	;# 
   804  0219                     	;# 
   805  021A                     	;# 
   806  021B                     	;# 
   807  021C                     	;# 
   808  021D                     	;# 
   809  021E                     	;# 
   810  021F                     	;# 
   811  0291                     	;# 
   812  0291                     	;# 
   813  0292                     	;# 
   814  0293                     	;# 
   815  0294                     	;# 
   816  0295                     	;# 
   817  0295                     	;# 
   818  0296                     	;# 
   819  0298                     	;# 
   820  0298                     	;# 
   821  0299                     	;# 
   822  029A                     	;# 
   823  029B                     	;# 
   824  029C                     	;# 
   825  029C                     	;# 
   826  029D                     	;# 
   827  029E                     	;# 
   828  029E                     	;# 
   829  0311                     	;# 
   830  0311                     	;# 
   831  0312                     	;# 
   832  0313                     	;# 
   833  0318                     	;# 
   834  0318                     	;# 
   835  0319                     	;# 
   836  031A                     	;# 
   837  0394                     	;# 
   838  0395                     	;# 
   839  0396                     	;# 
   840  039A                     	;# 
   841  039C                     	;# 
   842  039D                     	;# 
   843  039E                     	;# 
   844  039F                     	;# 
   845  0415                     	;# 
   846  0416                     	;# 
   847  0417                     	;# 
   848  041C                     	;# 
   849  041D                     	;# 
   850  041E                     	;# 
   851  0FE4                     	;# 
   852  0FE5                     	;# 
   853  0FE6                     	;# 
   854  0FE7                     	;# 
   855  0FE8                     	;# 
   856  0FE9                     	;# 
   857  0FEA                     	;# 
   858  0FEB                     	;# 
   859  0FED                     	;# 
   860  0FEE                     	;# 
   861  0FEF                     	;# 
   862  0000                     	;# 
   863  0001                     	;# 
   864  0002                     	;# 
   865  0003                     	;# 
   866  0004                     	;# 
   867  0005                     	;# 
   868  0006                     	;# 
   869  0007                     	;# 
   870  0008                     	;# 
   871  0009                     	;# 
   872  000A                     	;# 
   873  000B                     	;# 
   874  000C                     	;# 
   875  000D                     	;# 
   876  0011                     	;# 
   877  0012                     	;# 
   878  0013                     	;# 
   879  0014                     	;# 
   880  0015                     	;# 
   881  0016                     	;# 
   882  0016                     	;# 
   883  0017                     	;# 
   884  0018                     	;# 
   885  0019                     	;# 
   886  001A                     	;# 
   887  001B                     	;# 
   888  001C                     	;# 
   889  001E                     	;# 
   890  001F                     	;# 
   891  008C                     	;# 
   892  008D                     	;# 
   893  0091                     	;# 
   894  0092                     	;# 
   895  0093                     	;# 
   896  0094                     	;# 
   897  0095                     	;# 
   898  0096                     	;# 
   899  0097                     	;# 
   900  0098                     	;# 
   901  0099                     	;# 
   902  009A                     	;# 
   903  009B                     	;# 
   904  009B                     	;# 
   905  009C                     	;# 
   906  009D                     	;# 
   907  009E                     	;# 
   908  010C                     	;# 
   909  010D                     	;# 
   910  0111                     	;# 
   911  0112                     	;# 
   912  0113                     	;# 
   913  0114                     	;# 
   914  0115                     	;# 
   915  0116                     	;# 
   916  0117                     	;# 
   917  0118                     	;# 
   918  0119                     	;# 
   919  011A                     	;# 
   920  011B                     	;# 
   921  011D                     	;# 
   922  011E                     	;# 
   923  018C                     	;# 
   924  018D                     	;# 
   925  0191                     	;# 
   926  0191                     	;# 
   927  0192                     	;# 
   928  0193                     	;# 
   929  0193                     	;# 
   930  0193                     	;# 
   931  0194                     	;# 
   932  0195                     	;# 
   933  0196                     	;# 
   934  0199                     	;# 
   935  019A                     	;# 
   936  019B                     	;# 
   937  019B                     	;# 
   938  019B                     	;# 
   939  019B                     	;# 
   940  019C                     	;# 
   941  019C                     	;# 
   942  019D                     	;# 
   943  019E                     	;# 
   944  019F                     	;# 
   945  020C                     	;# 
   946  020D                     	;# 
   947  0211                     	;# 
   948  0211                     	;# 
   949  0212                     	;# 
   950  0212                     	;# 
   951  0213                     	;# 
   952  0213                     	;# 
   953  0214                     	;# 
   954  0214                     	;# 
   955  0215                     	;# 
   956  0215                     	;# 
   957  0215                     	;# 
   958  0216                     	;# 
   959  0216                     	;# 
   960  0217                     	;# 
   961  0217                     	;# 
   962  0219                     	;# 
   963  021A                     	;# 
   964  021B                     	;# 
   965  021C                     	;# 
   966  021D                     	;# 
   967  021E                     	;# 
   968  021F                     	;# 
   969  0291                     	;# 
   970  0291                     	;# 
   971  0292                     	;# 
   972  0293                     	;# 
   973  0294                     	;# 
   974  0295                     	;# 
   975  0295                     	;# 
   976  0296                     	;# 
   977  0298                     	;# 
   978  0298                     	;# 
   979  0299                     	;# 
   980  029A                     	;# 
   981  029B                     	;# 
   982  029C                     	;# 
   983  029C                     	;# 
   984  029D                     	;# 
   985  029E                     	;# 
   986  029E                     	;# 
   987  0311                     	;# 
   988  0311                     	;# 
   989  0312                     	;# 
   990  0313                     	;# 
   991  0318                     	;# 
   992  0318                     	;# 
   993  0319                     	;# 
   994  031A                     	;# 
   995  0394                     	;# 
   996  0395                     	;# 
   997  0396                     	;# 
   998  039A                     	;# 
   999  039C                     	;# 
  1000  039D                     	;# 
  1001  039E                     	;# 
  1002  039F                     	;# 
  1003  0415                     	;# 
  1004  0416                     	;# 
  1005  0417                     	;# 
  1006  041C                     	;# 
  1007  041D                     	;# 
  1008  041E                     	;# 
  1009  0FE4                     	;# 
  1010  0FE5                     	;# 
  1011  0FE6                     	;# 
  1012  0FE7                     	;# 
  1013  0FE8                     	;# 
  1014  0FE9                     	;# 
  1015  0FEA                     	;# 
  1016  0FEB                     	;# 
  1017  0FED                     	;# 
  1018  0FEE                     	;# 
  1019  0FEF                     	;# 
  1020  0000                     	;# 
  1021  0001                     	;# 
  1022  0002                     	;# 
  1023  0003                     	;# 
  1024  0004                     	;# 
  1025  0005                     	;# 
  1026  0006                     	;# 
  1027  0007                     	;# 
  1028  0008                     	;# 
  1029  0009                     	;# 
  1030  000A                     	;# 
  1031  000B                     	;# 
  1032  000C                     	;# 
  1033  000D                     	;# 
  1034  0011                     	;# 
  1035  0012                     	;# 
  1036  0013                     	;# 
  1037  0014                     	;# 
  1038  0015                     	;# 
  1039  0016                     	;# 
  1040  0016                     	;# 
  1041  0017                     	;# 
  1042  0018                     	;# 
  1043  0019                     	;# 
  1044  001A                     	;# 
  1045  001B                     	;# 
  1046  001C                     	;# 
  1047  001E                     	;# 
  1048  001F                     	;# 
  1049  008C                     	;# 
  1050  008D                     	;# 
  1051  0091                     	;# 
  1052  0092                     	;# 
  1053  0093                     	;# 
  1054  0094                     	;# 
  1055  0095                     	;# 
  1056  0096                     	;# 
  1057  0097                     	;# 
  1058  0098                     	;# 
  1059  0099                     	;# 
  1060  009A                     	;# 
  1061  009B                     	;# 
  1062  009B                     	;# 
  1063  009C                     	;# 
  1064  009D                     	;# 
  1065  009E                     	;# 
  1066  010C                     	;# 
  1067  010D                     	;# 
  1068  0111                     	;# 
  1069  0112                     	;# 
  1070  0113                     	;# 
  1071  0114                     	;# 
  1072  0115                     	;# 
  1073  0116                     	;# 
  1074  0117                     	;# 
  1075  0118                     	;# 
  1076  0119                     	;# 
  1077  011A                     	;# 
  1078  011B                     	;# 
  1079  011D                     	;# 
  1080  011E                     	;# 
  1081  018C                     	;# 
  1082  018D                     	;# 
  1083  0191                     	;# 
  1084  0191                     	;# 
  1085  0192                     	;# 
  1086  0193                     	;# 
  1087  0193                     	;# 
  1088  0193                     	;# 
  1089  0194                     	;# 
  1090  0195                     	;# 
  1091  0196                     	;# 
  1092  0199                     	;# 
  1093  019A                     	;# 
  1094  019B                     	;# 
  1095  019B                     	;# 
  1096  019B                     	;# 
  1097  019B                     	;# 
  1098  019C                     	;# 
  1099  019C                     	;# 
  1100  019D                     	;# 
  1101  019E                     	;# 
  1102  019F                     	;# 
  1103  020C                     	;# 
  1104  020D                     	;# 
  1105  0211                     	;# 
  1106  0211                     	;# 
  1107  0212                     	;# 
  1108  0212                     	;# 
  1109  0213                     	;# 
  1110  0213                     	;# 
  1111  0214                     	;# 
  1112  0214                     	;# 
  1113  0215                     	;# 
  1114  0215                     	;# 
  1115  0215                     	;# 
  1116  0216                     	;# 
  1117  0216                     	;# 
  1118  0217                     	;# 
  1119  0217                     	;# 
  1120  0219                     	;# 
  1121  021A                     	;# 
  1122  021B                     	;# 
  1123  021C                     	;# 
  1124  021D                     	;# 
  1125  021E                     	;# 
  1126  021F                     	;# 
  1127  0291                     	;# 
  1128  0291                     	;# 
  1129  0292                     	;# 
  1130  0293                     	;# 
  1131  0294                     	;# 
  1132  0295                     	;# 
  1133  0295                     	;# 
  1134  0296                     	;# 
  1135  0298                     	;# 
  1136  0298                     	;# 
  1137  0299                     	;# 
  1138  029A                     	;# 
  1139  029B                     	;# 
  1140  029C                     	;# 
  1141  029C                     	;# 
  1142  029D                     	;# 
  1143  029E                     	;# 
  1144  029E                     	;# 
  1145  0311                     	;# 
  1146  0311                     	;# 
  1147  0312                     	;# 
  1148  0313                     	;# 
  1149  0318                     	;# 
  1150  0318                     	;# 
  1151  0319                     	;# 
  1152  031A                     	;# 
  1153  0394                     	;# 
  1154  0395                     	;# 
  1155  0396                     	;# 
  1156  039A                     	;# 
  1157  039C                     	;# 
  1158  039D                     	;# 
  1159  039E                     	;# 
  1160  039F                     	;# 
  1161  0415                     	;# 
  1162  0416                     	;# 
  1163  0417                     	;# 
  1164  041C                     	;# 
  1165  041D                     	;# 
  1166  041E                     	;# 
  1167  0FE4                     	;# 
  1168  0FE5                     	;# 
  1169  0FE6                     	;# 
  1170  0FE7                     	;# 
  1171  0FE8                     	;# 
  1172  0FE9                     	;# 
  1173  0FEA                     	;# 
  1174  0FEB                     	;# 
  1175  0FED                     	;# 
  1176  0FEE                     	;# 
  1177  0FEF                     	;# 
  1178  0000                     	;# 
  1179  0001                     	;# 
  1180  0002                     	;# 
  1181  0003                     	;# 
  1182  0004                     	;# 
  1183  0005                     	;# 
  1184  0006                     	;# 
  1185  0007                     	;# 
  1186  0008                     	;# 
  1187  0009                     	;# 
  1188  000A                     	;# 
  1189  000B                     	;# 
  1190  000C                     	;# 
  1191  000D                     	;# 
  1192  0011                     	;# 
  1193  0012                     	;# 
  1194  0013                     	;# 
  1195  0014                     	;# 
  1196  0015                     	;# 
  1197  0016                     	;# 
  1198  0016                     	;# 
  1199  0017                     	;# 
  1200  0018                     	;# 
  1201  0019                     	;# 
  1202  001A                     	;# 
  1203  001B                     	;# 
  1204  001C                     	;# 
  1205  001E                     	;# 
  1206  001F                     	;# 
  1207  008C                     	;# 
  1208  008D                     	;# 
  1209  0091                     	;# 
  1210  0092                     	;# 
  1211  0093                     	;# 
  1212  0094                     	;# 
  1213  0095                     	;# 
  1214  0096                     	;# 
  1215  0097                     	;# 
  1216  0098                     	;# 
  1217  0099                     	;# 
  1218  009A                     	;# 
  1219  009B                     	;# 
  1220  009B                     	;# 
  1221  009C                     	;# 
  1222  009D                     	;# 
  1223  009E                     	;# 
  1224  010C                     	;# 
  1225  010D                     	;# 
  1226  0111                     	;# 
  1227  0112                     	;# 
  1228  0113                     	;# 
  1229  0114                     	;# 
  1230  0115                     	;# 
  1231  0116                     	;# 
  1232  0117                     	;# 
  1233  0118                     	;# 
  1234  0119                     	;# 
  1235  011A                     	;# 
  1236  011B                     	;# 
  1237  011D                     	;# 
  1238  011E                     	;# 
  1239  018C                     	;# 
  1240  018D                     	;# 
  1241  0191                     	;# 
  1242  0191                     	;# 
  1243  0192                     	;# 
  1244  0193                     	;# 
  1245  0193                     	;# 
  1246  0193                     	;# 
  1247  0194                     	;# 
  1248  0195                     	;# 
  1249  0196                     	;# 
  1250  0199                     	;# 
  1251  019A                     	;# 
  1252  019B                     	;# 
  1253  019B                     	;# 
  1254  019B                     	;# 
  1255  019B                     	;# 
  1256  019C                     	;# 
  1257  019C                     	;# 
  1258  019D                     	;# 
  1259  019E                     	;# 
  1260  019F                     	;# 
  1261  020C                     	;# 
  1262  020D                     	;# 
  1263  0211                     	;# 
  1264  0211                     	;# 
  1265  0212                     	;# 
  1266  0212                     	;# 
  1267  0213                     	;# 
  1268  0213                     	;# 
  1269  0214                     	;# 
  1270  0214                     	;# 
  1271  0215                     	;# 
  1272  0215                     	;# 
  1273  0215                     	;# 
  1274  0216                     	;# 
  1275  0216                     	;# 
  1276  0217                     	;# 
  1277  0217                     	;# 
  1278  0219                     	;# 
  1279  021A                     	;# 
  1280  021B                     	;# 
  1281  021C                     	;# 
  1282  021D                     	;# 
  1283  021E                     	;# 
  1284  021F                     	;# 
  1285  0291                     	;# 
  1286  0291                     	;# 
  1287  0292                     	;# 
  1288  0293                     	;# 
  1289  0294                     	;# 
  1290  0295                     	;# 
  1291  0295                     	;# 
  1292  0296                     	;# 
  1293  0298                     	;# 
  1294  0298                     	;# 
  1295  0299                     	;# 
  1296  029A                     	;# 
  1297  029B                     	;# 
  1298  029C                     	;# 
  1299  029C                     	;# 
  1300  029D                     	;# 
  1301  029E                     	;# 
  1302  029E                     	;# 
  1303  0311                     	;# 
  1304  0311                     	;# 
  1305  0312                     	;# 
  1306  0313                     	;# 
  1307  0318                     	;# 
  1308  0318                     	;# 
  1309  0319                     	;# 
  1310  031A                     	;# 
  1311  0394                     	;# 
  1312  0395                     	;# 
  1313  0396                     	;# 
  1314  039A                     	;# 
  1315  039C                     	;# 
  1316  039D                     	;# 
  1317  039E                     	;# 
  1318  039F                     	;# 
  1319  0415                     	;# 
  1320  0416                     	;# 
  1321  0417                     	;# 
  1322  041C                     	;# 
  1323  041D                     	;# 
  1324  041E                     	;# 
  1325  0FE4                     	;# 
  1326  0FE5                     	;# 
  1327  0FE6                     	;# 
  1328  0FE7                     	;# 
  1329  0FE8                     	;# 
  1330  0FE9                     	;# 
  1331  0FEA                     	;# 
  1332  0FEB                     	;# 
  1333  0FED                     	;# 
  1334  0FEE                     	;# 
  1335  0FEF                     	;# 
  1336  0000                     	;# 
  1337  0001                     	;# 
  1338  0002                     	;# 
  1339  0003                     	;# 
  1340  0004                     	;# 
  1341  0005                     	;# 
  1342  0006                     	;# 
  1343  0007                     	;# 
  1344  0008                     	;# 
  1345  0009                     	;# 
  1346  000A                     	;# 
  1347  000B                     	;# 
  1348  000C                     	;# 
  1349  000D                     	;# 
  1350  0011                     	;# 
  1351  0012                     	;# 
  1352  0013                     	;# 
  1353  0014                     	;# 
  1354  0015                     	;# 
  1355  0016                     	;# 
  1356  0016                     	;# 
  1357  0017                     	;# 
  1358  0018                     	;# 
  1359  0019                     	;# 
  1360  001A                     	;# 
  1361  001B                     	;# 
  1362  001C                     	;# 
  1363  001E                     	;# 
  1364  001F                     	;# 
  1365  008C                     	;# 
  1366  008D                     	;# 
  1367  0091                     	;# 
  1368  0092                     	;# 
  1369  0093                     	;# 
  1370  0094                     	;# 
  1371  0095                     	;# 
  1372  0096                     	;# 
  1373  0097                     	;# 
  1374  0098                     	;# 
  1375  0099                     	;# 
  1376  009A                     	;# 
  1377  009B                     	;# 
  1378  009B                     	;# 
  1379  009C                     	;# 
  1380  009D                     	;# 
  1381  009E                     	;# 
  1382  010C                     	;# 
  1383  010D                     	;# 
  1384  0111                     	;# 
  1385  0112                     	;# 
  1386  0113                     	;# 
  1387  0114                     	;# 
  1388  0115                     	;# 
  1389  0116                     	;# 
  1390  0117                     	;# 
  1391  0118                     	;# 
  1392  0119                     	;# 
  1393  011A                     	;# 
  1394  011B                     	;# 
  1395  011D                     	;# 
  1396  011E                     	;# 
  1397  018C                     	;# 
  1398  018D                     	;# 
  1399  0191                     	;# 
  1400  0191                     	;# 
  1401  0192                     	;# 
  1402  0193                     	;# 
  1403  0193                     	;# 
  1404  0193                     	;# 
  1405  0194                     	;# 
  1406  0195                     	;# 
  1407  0196                     	;# 
  1408  0199                     	;# 
  1409  019A                     	;# 
  1410  019B                     	;# 
  1411  019B                     	;# 
  1412  019B                     	;# 
  1413  019B                     	;# 
  1414  019C                     	;# 
  1415  019C                     	;# 
  1416  019D                     	;# 
  1417  019E                     	;# 
  1418  019F                     	;# 
  1419  020C                     	;# 
  1420  020D                     	;# 
  1421  0211                     	;# 
  1422  0211                     	;# 
  1423  0212                     	;# 
  1424  0212                     	;# 
  1425  0213                     	;# 
  1426  0213                     	;# 
  1427  0214                     	;# 
  1428  0214                     	;# 
  1429  0215                     	;# 
  1430  0215                     	;# 
  1431  0215                     	;# 
  1432  0216                     	;# 
  1433  0216                     	;# 
  1434  0217                     	;# 
  1435  0217                     	;# 
  1436  0219                     	;# 
  1437  021A                     	;# 
  1438  021B                     	;# 
  1439  021C                     	;# 
  1440  021D                     	;# 
  1441  021E                     	;# 
  1442  021F                     	;# 
  1443  0291                     	;# 
  1444  0291                     	;# 
  1445  0292                     	;# 
  1446  0293                     	;# 
  1447  0294                     	;# 
  1448  0295                     	;# 
  1449  0295                     	;# 
  1450  0296                     	;# 
  1451  0298                     	;# 
  1452  0298                     	;# 
  1453  0299                     	;# 
  1454  029A                     	;# 
  1455  029B                     	;# 
  1456  029C                     	;# 
  1457  029C                     	;# 
  1458  029D                     	;# 
  1459  029E                     	;# 
  1460  029E                     	;# 
  1461  0311                     	;# 
  1462  0311                     	;# 
  1463  0312                     	;# 
  1464  0313                     	;# 
  1465  0318                     	;# 
  1466  0318                     	;# 
  1467  0319                     	;# 
  1468  031A                     	;# 
  1469  0394                     	;# 
  1470  0395                     	;# 
  1471  0396                     	;# 
  1472  039A                     	;# 
  1473  039C                     	;# 
  1474  039D                     	;# 
  1475  039E                     	;# 
  1476  039F                     	;# 
  1477  0415                     	;# 
  1478  0416                     	;# 
  1479  0417                     	;# 
  1480  041C                     	;# 
  1481  041D                     	;# 
  1482  041E                     	;# 
  1483  0FE4                     	;# 
  1484  0FE5                     	;# 
  1485  0FE6                     	;# 
  1486  0FE7                     	;# 
  1487  0FE8                     	;# 
  1488  0FE9                     	;# 
  1489  0FEA                     	;# 
  1490  0FEB                     	;# 
  1491  0FED                     	;# 
  1492  0FEE                     	;# 
  1493  0FEF                     	;# 
  1494  0000                     	;# 
  1495  0001                     	;# 
  1496  0002                     	;# 
  1497  0003                     	;# 
  1498  0004                     	;# 
  1499  0005                     	;# 
  1500  0006                     	;# 
  1501  0007                     	;# 
  1502  0008                     	;# 
  1503  0009                     	;# 
  1504  000A                     	;# 
  1505  000B                     	;# 
  1506  000C                     	;# 
  1507  000D                     	;# 
  1508  0011                     	;# 
  1509  0012                     	;# 
  1510  0013                     	;# 
  1511  0014                     	;# 
  1512  0015                     	;# 
  1513  0016                     	;# 
  1514  0016                     	;# 
  1515  0017                     	;# 
  1516  0018                     	;# 
  1517  0019                     	;# 
  1518  001A                     	;# 
  1519  001B                     	;# 
  1520  001C                     	;# 
  1521  001E                     	;# 
  1522  001F                     	;# 
  1523  008C                     	;# 
  1524  008D                     	;# 
  1525  0091                     	;# 
  1526  0092                     	;# 
  1527  0093                     	;# 
  1528  0094                     	;# 
  1529  0095                     	;# 
  1530  0096                     	;# 
  1531  0097                     	;# 
  1532  0098                     	;# 
  1533  0099                     	;# 
  1534  009A                     	;# 
  1535  009B                     	;# 
  1536  009B                     	;# 
  1537  009C                     	;# 
  1538  009D                     	;# 
  1539  009E                     	;# 
  1540  010C                     	;# 
  1541  010D                     	;# 
  1542  0111                     	;# 
  1543  0112                     	;# 
  1544  0113                     	;# 
  1545  0114                     	;# 
  1546  0115                     	;# 
  1547  0116                     	;# 
  1548  0117                     	;# 
  1549  0118                     	;# 
  1550  0119                     	;# 
  1551  011A                     	;# 
  1552  011B                     	;# 
  1553  011D                     	;# 
  1554  011E                     	;# 
  1555  018C                     	;# 
  1556  018D                     	;# 
  1557  0191                     	;# 
  1558  0191                     	;# 
  1559  0192                     	;# 
  1560  0193                     	;# 
  1561  0193                     	;# 
  1562  0193                     	;# 
  1563  0194                     	;# 
  1564  0195                     	;# 
  1565  0196                     	;# 
  1566  0199                     	;# 
  1567  019A                     	;# 
  1568  019B                     	;# 
  1569  019B                     	;# 
  1570  019B                     	;# 
  1571  019B                     	;# 
  1572  019C                     	;# 
  1573  019C                     	;# 
  1574  019D                     	;# 
  1575  019E                     	;# 
  1576  019F                     	;# 
  1577  020C                     	;# 
  1578  020D                     	;# 
  1579  0211                     	;# 
  1580  0211                     	;# 
  1581  0212                     	;# 
  1582  0212                     	;# 
  1583  0213                     	;# 
  1584  0213                     	;# 
  1585  0214                     	;# 
  1586  0214                     	;# 
  1587  0215                     	;# 
  1588  0215                     	;# 
  1589  0215                     	;# 
  1590  0216                     	;# 
  1591  0216                     	;# 
  1592  0217                     	;# 
  1593  0217                     	;# 
  1594  0219                     	;# 
  1595  021A                     	;# 
  1596  021B                     	;# 
  1597  021C                     	;# 
  1598  021D                     	;# 
  1599  021E                     	;# 
  1600  021F                     	;# 
  1601  0291                     	;# 
  1602  0291                     	;# 
  1603  0292                     	;# 
  1604  0293                     	;# 
  1605  0294                     	;# 
  1606  0295                     	;# 
  1607  0295                     	;# 
  1608  0296                     	;# 
  1609  0298                     	;# 
  1610  0298                     	;# 
  1611  0299                     	;# 
  1612  029A                     	;# 
  1613  029B                     	;# 
  1614  029C                     	;# 
  1615  029C                     	;# 
  1616  029D                     	;# 
  1617  029E                     	;# 
  1618  029E                     	;# 
  1619  0311                     	;# 
  1620  0311                     	;# 
  1621  0312                     	;# 
  1622  0313                     	;# 
  1623  0318                     	;# 
  1624  0318                     	;# 
  1625  0319                     	;# 
  1626  031A                     	;# 
  1627  0394                     	;# 
  1628  0395                     	;# 
  1629  0396                     	;# 
  1630  039A                     	;# 
  1631  039C                     	;# 
  1632  039D                     	;# 
  1633  039E                     	;# 
  1634  039F                     	;# 
  1635  0415                     	;# 
  1636  0416                     	;# 
  1637  0417                     	;# 
  1638  041C                     	;# 
  1639  041D                     	;# 
  1640  041E                     	;# 
  1641  0FE4                     	;# 
  1642  0FE5                     	;# 
  1643  0FE6                     	;# 
  1644  0FE7                     	;# 
  1645  0FE8                     	;# 
  1646  0FE9                     	;# 
  1647  0FEA                     	;# 
  1648  0FEB                     	;# 
  1649  0FED                     	;# 
  1650  0FEE                     	;# 
  1651  0FEF                     	;# 
  1652                           
  1653 ;; Function _wr1RegCompleteHandler is unused but had its address taken
  1654  0000                     
  1655 ;; Function _rd1RegCompleteHandler is unused but had its address taken
  1656  0000                     
  1657 ;; Function _rd2RegCompleteHandler is unused but had its address taken
  1658  0000                     
  1659 ;; Function _wr2RegCompleteHandler is unused but had its address taken
  1660  0000                     
  1661 ;; Function _rdBlkRegCompleteHandler is unused but had its address taken
  1662  0000                     
  1663 ;; Function _rd1RegCompleteHandler@i2c1_master_example$F143 is unused but had its address taken
  1664  0000                     
  1665 ;; Function _rd2RegCompleteHandler@i2c1_master_example$F154 is unused but had its address taken
  1666  0000                     
  1667 ;; Function _wr1RegCompleteHandler@i2c1_master_example$F160 is unused but had its address taken
  1668  0000                     
  1669 ;; Function _wr2RegCompleteHandler@i2c1_master_example$F166 is unused but had its address taken
  1670  0000                     
  1671 ;; Function _rdBlkRegCompleteHandler@i2c1_master_example$F177 is unused but had its address taken
  1672  0000                     
  1673 ;; Function _I2C1_DO_IDLE is unused but had its address taken
  1674  0000                     
  1675 ;; Function _I2C1_DO_SEND_ADR_READ is unused but had its address taken
  1676  0000                     
  1677 ;; Function _I2C1_DO_SEND_ADR_WRITE is unused but had its address taken
  1678  0000                     
  1679 ;; Function _I2C1_DO_TX is unused but had its address taken
  1680  0000                     
  1681 ;; Function _I2C1_DO_RX is unused but had its address taken
  1682  0000                     
  1683 ;; Function _I2C1_DO_RCEN is unused but had its address taken
  1684  0000                     
  1685 ;; Function _I2C1_DO_TX_EMPTY is unused but had its address taken
  1686  0000                     
  1687 ;; Function _I2C1_DO_SEND_RESTART_READ is unused but had its address taken
  1688  0000                     
  1689 ;; Function _I2C1_DO_SEND_RESTART_WRITE is unused but had its address taken
  1690  0000                     
  1691 ;; Function _I2C1_DO_SEND_RESTART is unused but had its address taken
  1692  0000                     
  1693 ;; Function _I2C1_DO_SEND_STOP is unused but had its address taken
  1694  0000                     
  1695 ;; Function _I2C1_DO_RX_ACK is unused but had its address taken
  1696  0000                     
  1697 ;; Function _I2C1_DO_RX_NACK_STOP is unused but had its address taken
  1698  0000                     
  1699 ;; Function _I2C1_DO_RX_NACK_RESTART is unused but had its address taken
  1700  0000                     
  1701 ;; Function _I2C1_DO_RESET is unused but had its address taken
  1702  0000                     
  1703 ;; Function _I2C1_DO_ADDRESS_NACK is unused but had its address taken
  1704  0000                     
  1705 ;; Function _I2C1_CallbackReturnStop is unused but had its address taken
  1706  0000                     
  1707 ;; Function _I2C1_CallbackReturnReset is unused but had its address taken
  1708  0000                     
  1709                           	psect	idataBANK0
  1710  01CB                     __pidataBANK0:
  1711                           
  1712                           ;initializer for _waiting_time
  1713  01CB  340F               	retlw	15
  1714  01CC  3400               	retlw	0
  1715  01CD  3400               	retlw	0
  1716  01CE  3400               	retlw	0
  1717                           
  1718                           	psect	stringtext1
  1719  00C8                     __pstringtext1:
  1720  00C8                     _i2c1_fsmStateTable:
  1721  00C8  3400               	retlw	0
  1722  00C9  3400               	retlw	0
  1723  00CA  3400               	retlw	0
  1724  00CB  3400               	retlw	0
  1725  00CC  3400               	retlw	0
  1726  00CD  3400               	retlw	0
  1727  00CE  3400               	retlw	0
  1728  00CF  3400               	retlw	0
  1729  00D0  3400               	retlw	0
  1730  00D1  3400               	retlw	0
  1731  00D2  3400               	retlw	0
  1732  00D3  3400               	retlw	0
  1733  00D4  3400               	retlw	0
  1734  00D5  3400               	retlw	0
  1735  00D6  3400               	retlw	0
  1736  00D7  3400               	retlw	0
  1737  00D8  3400               	retlw	0
  1738  00D9  3400               	retlw	0
  1739  00DA  3400               	retlw	0
  1740  00DB  3400               	retlw	0
  1741  00DC  3400               	retlw	0
  1742  00DD  3400               	retlw	0
  1743  00DE  3400               	retlw	0
  1744  00DF  3400               	retlw	0
  1745  00E0  3400               	retlw	0
  1746  00E1  3400               	retlw	0
  1747  00E2  3400               	retlw	0
  1748  00E3  3400               	retlw	0
  1749  00E4  3400               	retlw	0
  1750  00E5  3400               	retlw	0
  1751  00E6  3400               	retlw	0
  1752  00E7  3400               	retlw	0
  1753  00E8                     __end_of_i2c1_fsmStateTable:
  1754                           
  1755                           	psect	nvCOMMON
  1756  007B                     __pnvCOMMON:
  1757  007B                     _timer1ReloadVal:
  1758  007B                     	ds	2
  1759                           
  1760                           	psect	nvBANK0
  1761  0042                     __pnvBANK0:
  1762  0042                     _TMR1_InterruptHandler:
  1763  0042                     	ds	2
  1764  0044                     _TMR4_InterruptHandler:
  1765  0044                     	ds	2
  1766  0019                     _T1GCONbits	set	25
  1767  0018                     _T1CONbits	set	24
  1768  0018                     _T1CON	set	24
  1769  0016                     _TMR1L	set	22
  1770  0017                     _TMR1H	set	23
  1771  0019                     _T1GCON	set	25
  1772  001C                     _T2CONbits	set	28
  1773  001C                     _T2CON	set	28
  1774  001A                     _TMR2	set	26
  1775  001B                     _PR2	set	27
  1776  0012                     _PIR2bits	set	18
  1777  0011                     _PIR1bits	set	17
  1778  000B                     _INTCONbits	set	11
  1779  0013                     _PIR3bits	set	19
  1780  0091                     _PIE1bits	set	145
  1781  0093                     _PIE3bits	set	147
  1782  0097                     _WDTCON	set	151
  1783  0098                     _OSCTUNE	set	152
  1784  0099                     _OSCCON	set	153
  1785  0095                     _OPTION_REGbits	set	149
  1786  008D                     _TRISB	set	141
  1787  008C                     _TRISA	set	140
  1788  010C                     _LATAbits	set	268
  1789  0116                     _BORCON	set	278
  1790  011E                     _APFCON1	set	286
  1791  011D                     _APFCON0	set	285
  1792  010D                     _LATB	set	269
  1793  010C                     _LATA	set	268
  1794  018C                     _ANSELA	set	396
  1795  018D                     _ANSELB	set	397
  1796  0214                     _SSP1STATbits	set	532
  1797  0216                     _SSP1CON2bits	set	534
  1798  0211                     _SSP1BUF	set	529
  1799  0215                     _SSP1CON1bits	set	533
  1800  0212                     _SSP1ADD	set	530
  1801  0216                     _SSP1CON2	set	534
  1802  0215                     _SSP1CON1	set	533
  1803  0214                     _SSP1STAT	set	532
  1804  020C                     _WPUA	set	524
  1805  020D                     _WPUB	set	525
  1806  029E                     _CCPTMRS0bits	set	670
  1807  0291                     _CCPR1L	set	657
  1808  0292                     _CCPR1H	set	658
  1809  0296                     _PSTR1CON	set	662
  1810  0294                     _PWM1CON	set	660
  1811  0295                     _ECCP1AS	set	661
  1812  0293                     _CCP1CON	set	659
  1813  0417                     _T4CONbits	set	1047
  1814  0417                     _T4CON	set	1047
  1815  0415                     _TMR4	set	1045
  1816  0416                     _PR4	set	1046
  1817                           
  1818                           	psect	cinit
  1819  002A                     start_initialization:	
  1820                           ; #config settings
  1821                           
  1822  002A                     __initialization:
  1823                           
  1824                           ; Initialize objects allocated to BANK0
  1825  002A  3181  21CB  3180   	fcall	__pidataBANK0	;fetch initializer
  1826  002D  00C6               	movwf	__pdataBANK0& (0+127)
  1827  002E  3181  21CC  3180   	fcall	__pidataBANK0+1	;fetch initializer
  1828  0031  00C7               	movwf	(__pdataBANK0+1)& (0+127)
  1829  0032  3181  21CD  3180   	fcall	__pidataBANK0+2	;fetch initializer
  1830  0035  00C8               	movwf	(__pdataBANK0+2)& (0+127)
  1831  0036  3181  21CE  3180   	fcall	__pidataBANK0+3	;fetch initializer
  1832  0039  00C9               	movwf	(__pdataBANK0+3)& (0+127)
  1833                           
  1834                           ; Clear objects allocated to BANK0
  1835  003A  3020               	movlw	low __pbssBANK0
  1836  003B  0084               	movwf	4
  1837  003C  3000               	movlw	high __pbssBANK0
  1838  003D  0085               	movwf	5
  1839  003E  3022               	movlw	34
  1840  003F  3181  21B9  3180   	fcall	clear_ram0
  1841  0042                     end_of_initialization:	
  1842                           ;End of C runtime variable initialization code
  1843                           
  1844  0042                     __end_of__initialization:
  1845  0042  107E               	bcf	int$flags,0	;clear compiler interrupt flag (level 1)
  1846  0043  0020               	movlb	0
  1847  0044  3180  28E8         	ljmp	_main	;jump to C main() function
  1848                           
  1849                           	psect	bssBANK0
  1850  0020                     __pbssBANK0:
  1851  0020                     _I2C1_Status:
  1852  0020                     	ds	29
  1853  003D                     _counter:
  1854  003D                     	ds	4
  1855  0041                     _time_elapsed:
  1856  0041                     	ds	1
  1857                           
  1858                           	psect	dataBANK0
  1859  0046                     __pdataBANK0:
  1860  0046                     _waiting_time:
  1861  0046                     	ds	4
  1862                           
  1863                           	psect	clrtext
  1864  01B9                     clear_ram0:	
  1865                           ;	Called with FSR0 containing the base address, and
  1866                           ;	WREG with the size to clear
  1867                           
  1868  01B9  0064               	clrwdt	;clear the watchdog before getting into this loop
  1869  01BA                     clrloop0:
  1870  01BA  0180               	clrf	0	;clear RAM location pointed to by FSR
  1871  01BB  3101               	addfsr 0,1
  1872  01BC  0B89               	decfsz	9,f	;Have we reached the end of clearing yet?
  1873  01BD  29BA               	goto	clrloop0	;have we reached the end yet?
  1874  01BE  3400               	retlw	0	;all done for this memory range, return
  1875                           
  1876                           	psect	cstackCOMMON
  1877  0070                     __pcstackCOMMON:
  1878  0070                     ?_I2C1_Initialize:
  1879  0070                     ?_OSCILLATOR_Initialize:	
  1880                           ; 1 bytes @ 0x0
  1881                           
  1882  0070                     ?_WDT_Initialize:	
  1883                           ; 1 bytes @ 0x0
  1884                           
  1885  0070                     ?_EPWM1_Initialize:	
  1886                           ; 1 bytes @ 0x0
  1887                           
  1888  0070                     ?_TMR4_Initialize:	
  1889                           ; 1 bytes @ 0x0
  1890                           
  1891  0070                     ?_TMR2_Initialize:	
  1892                           ; 1 bytes @ 0x0
  1893                           
  1894  0070                     ?_TMR1_Initialize:	
  1895                           ; 1 bytes @ 0x0
  1896                           
  1897  0070                     ?_TMR4_DefaultInterruptHandler:	
  1898                           ; 1 bytes @ 0x0
  1899                           
  1900  0070                     ??_TMR4_DefaultInterruptHandler:	
  1901                           ; 1 bytes @ 0x0
  1902                           
  1903  0070                     ?_TMR1_ISR:	
  1904                           ; 1 bytes @ 0x0
  1905                           
  1906  0070                     ?_TMR1_DefaultInterruptHandler:	
  1907                           ; 1 bytes @ 0x0
  1908                           
  1909  0070                     ??_TMR1_DefaultInterruptHandler:	
  1910                           ; 1 bytes @ 0x0
  1911                           
  1912  0070                     ?_PIN_MANAGER_Initialize:	
  1913                           ; 1 bytes @ 0x0
  1914                           
  1915  0070                     ?_SYSTEM_Initialize:	
  1916                           ; 1 bytes @ 0x0
  1917                           
  1918  0070                     ?_TMR4_ISR:	
  1919                           ; 1 bytes @ 0x0
  1920                           
  1921  0070                     ??_TMR4_ISR:	
  1922                           ; 1 bytes @ 0x0
  1923                           
  1924  0070                     ?_INTERRUPT_InterruptManager:	
  1925                           ; 1 bytes @ 0x0
  1926                           
  1927  0070                     ?_TMR1_StartTimer:	
  1928                           ; 1 bytes @ 0x0
  1929                           
  1930  0070                     ?_TMR1_WriteTimer:	
  1931                           ; 1 bytes @ 0x0
  1932                           
  1933  0070                     ?_toggle_LED:	
  1934                           ; 1 bytes @ 0x0
  1935                           
  1936  0070                     ?_main:	
  1937                           ; 1 bytes @ 0x0
  1938                           
  1939  0070                     ?___llmod:	
  1940                           ; 1 bytes @ 0x0
  1941                           
  1942  0070                     TMR1_WriteTimer@timerVal:	
  1943                           ; 4 bytes @ 0x0
  1944                           
  1945  0070                     ___llmod@divisor:	
  1946                           ; 2 bytes @ 0x0
  1947                           
  1948                           
  1949                           ; 4 bytes @ 0x0
  1950  0070                     	ds	2
  1951  0072                     ??_TMR1_WriteTimer:
  1952                           
  1953                           ; 1 bytes @ 0x2
  1954  0072                     	ds	2
  1955  0074                     ___llmod@dividend:
  1956                           
  1957                           ; 4 bytes @ 0x4
  1958  0074                     	ds	4
  1959  0078                     ??___llmod:
  1960                           
  1961                           ; 1 bytes @ 0x8
  1962  0078                     	ds	1
  1963  0079                     ___llmod@counter:
  1964                           
  1965                           ; 1 bytes @ 0x9
  1966  0079                     	ds	1
  1967  007A                     ??_toggle_LED:
  1968                           
  1969                           ; 1 bytes @ 0xA
  1970  007A                     	ds	1
  1971  007B                     ??_TMR1_ISR:
  1972  007B                     ??_INTERRUPT_InterruptManager:	
  1973                           ; 1 bytes @ 0xB
  1974                           
  1975                           
  1976                           	psect	cstackBANK0
  1977  004A                     __pcstackBANK0:	
  1978                           ; 1 bytes @ 0xB
  1979                           
  1980  004A                     ??_I2C1_Initialize:
  1981  004A                     ??_OSCILLATOR_Initialize:	
  1982                           ; 1 bytes @ 0x0
  1983                           
  1984  004A                     ??_WDT_Initialize:	
  1985                           ; 1 bytes @ 0x0
  1986                           
  1987  004A                     ??_EPWM1_Initialize:	
  1988                           ; 1 bytes @ 0x0
  1989                           
  1990  004A                     ??_TMR2_Initialize:	
  1991                           ; 1 bytes @ 0x0
  1992                           
  1993  004A                     ?_TMR4_SetInterruptHandler:	
  1994                           ; 1 bytes @ 0x0
  1995                           
  1996  004A                     ?_TMR1_SetInterruptHandler:	
  1997                           ; 1 bytes @ 0x0
  1998                           
  1999  004A                     ??_PIN_MANAGER_Initialize:	
  2000                           ; 1 bytes @ 0x0
  2001                           
  2002  004A                     ??_TMR1_StartTimer:	
  2003                           ; 1 bytes @ 0x0
  2004                           
  2005  004A                     TMR4_SetInterruptHandler@InterruptHandler:	
  2006                           ; 1 bytes @ 0x0
  2007                           
  2008  004A                     TMR1_SetInterruptHandler@InterruptHandler:	
  2009                           ; 2 bytes @ 0x0
  2010                           
  2011                           
  2012                           ; 2 bytes @ 0x0
  2013  004A                     	ds	2
  2014  004C                     ??_TMR4_Initialize:
  2015  004C                     ??_TMR1_Initialize:	
  2016                           ; 1 bytes @ 0x2
  2017                           
  2018  004C                     ??_TMR4_SetInterruptHandler:	
  2019                           ; 1 bytes @ 0x2
  2020                           
  2021  004C                     ??_TMR1_SetInterruptHandler:	
  2022                           ; 1 bytes @ 0x2
  2023                           
  2024  004C                     ??_SYSTEM_Initialize:	
  2025                           ; 1 bytes @ 0x2
  2026                           
  2027  004C                     ??_main:	
  2028                           ; 1 bytes @ 0x2
  2029                           
  2030                           
  2031                           	psect	maintext
  2032  00E8                     __pmaintext:	
  2033                           ; 1 bytes @ 0x2
  2034 ;;
  2035 ;;Main: autosize = 0, tempsize = 0, incstack = 0, save=0
  2036 ;;
  2037 ;; *************** function _main *****************
  2038 ;; Defined at:
  2039 ;;		line 70 in file "main.c"
  2040 ;; Parameters:    Size  Location     Type
  2041 ;;		None
  2042 ;; Auto vars:     Size  Location     Type
  2043 ;;		None
  2044 ;; Return value:  Size  Location     Type
  2045 ;;                  1    wreg      void 
  2046 ;; Registers used:
  2047 ;;		wreg, status,2, status,0, pclath, cstack
  2048 ;; Tracked objects:
  2049 ;;		On entry : B1F/0
  2050 ;;		On exit  : 0/0
  2051 ;;		Unchanged: 0/0
  2052 ;; Data sizes:     COMMON   BANK0   BANK1   BANK2   BANK3   BANK4
  2053 ;;      Params:         0       0       0       0       0       0
  2054 ;;      Locals:         0       0       0       0       0       0
  2055 ;;      Temps:          0       0       0       0       0       0
  2056 ;;      Totals:         0       0       0       0       0       0
  2057 ;;Total ram usage:        0 bytes
  2058 ;; Hardware stack levels required when called: 7
  2059 ;; This function calls:
  2060 ;;		_SYSTEM_Initialize
  2061 ;;		_TMR1_SetInterruptHandler
  2062 ;;		_TMR1_StartTimer
  2063 ;; This function is called by:
  2064 ;;		Startup code after reset
  2065 ;; This function uses a non-reentrant model
  2066 ;;
  2067                           
  2068                           
  2069                           ;psect for function _main
  2070  00E8                     _main:
  2071  00E8                     l2485:	
  2072                           ;incstack = 0
  2073                           ; Regs used in _main: [wreg+status,2+status,0+pclath+cstack]
  2074                           
  2075                           
  2076                           ;main.c: 73:     SYSTEM_Initialize();
  2077  00E8  3181  2102  3180   	fcall	_SYSTEM_Initialize
  2078  00EB                     l2487:
  2079                           
  2080                           ;main.c: 74:     TMR1_StartTimer();
  2081  00EB  3181  21D3  3180   	fcall	_TMR1_StartTimer
  2082  00EE                     l2489:
  2083                           
  2084                           ;main.c: 76:     TMR1_SetInterruptHandler(toggle_LED);
  2085  00EE  3090               	movlw	low _toggle_LED
  2086  00EF  0020               	movlb	0	; select bank0
  2087  00F0  00CA               	movwf	TMR1_SetInterruptHandler@InterruptHandler
  2088  00F1  3000               	movlw	high _toggle_LED
  2089  00F2  00CB               	movwf	TMR1_SetInterruptHandler@InterruptHandler+1
  2090  00F3  3181  21C5  3180   	fcall	_TMR1_SetInterruptHandler
  2091  00F6                     l2491:
  2092                           
  2093                           ;main.c: 83:     (INTCONbits.GIE = 1);
  2094  00F6  178B               	bsf	11,7	;volatile
  2095  00F7                     l2493:
  2096                           
  2097                           ;main.c: 86:     (INTCONbits.PEIE = 1);
  2098  00F7  170B               	bsf	11,6	;volatile
  2099  00F8                     l2495:
  2100                           
  2101                           ;main.c: 95:     {;main.c: 98:         if(time_elapsed)
  2102  00F8  0020               	movlb	0	; select bank0
  2103  00F9  0841               	movf	_time_elapsed,w
  2104  00FA  1903               	btfsc	3,2
  2105  00FB  28FD               	goto	u791
  2106  00FC  28FE               	goto	u790
  2107  00FD                     u791:
  2108  00FD  28F8               	goto	l2495
  2109  00FE                     u790:
  2110  00FE                     l2497:
  2111                           
  2112                           ;main.c: 99:         {;main.c: 100:             time_elapsed=0;
  2113  00FE  01C1               	clrf	_time_elapsed
  2114  00FF  28F8               	goto	l2495
  2115  0100  3180  2828         	ljmp	start
  2116  0102                     __end_of_main:
  2117                           
  2118                           	psect	text1
  2119  01D3                     __ptext1:	
  2120 ;; *************** function _TMR1_StartTimer *****************
  2121 ;; Defined at:
  2122 ;;		line 93 in file "mcc_generated_files/tmr1.c"
  2123 ;; Parameters:    Size  Location     Type
  2124 ;;		None
  2125 ;; Auto vars:     Size  Location     Type
  2126 ;;		None
  2127 ;; Return value:  Size  Location     Type
  2128 ;;                  1    wreg      void 
  2129 ;; Registers used:
  2130 ;;		None
  2131 ;; Tracked objects:
  2132 ;;		On entry : 0/0
  2133 ;;		On exit  : 0/0
  2134 ;;		Unchanged: 0/0
  2135 ;; Data sizes:     COMMON   BANK0   BANK1   BANK2   BANK3   BANK4
  2136 ;;      Params:         0       0       0       0       0       0
  2137 ;;      Locals:         0       0       0       0       0       0
  2138 ;;      Temps:          0       0       0       0       0       0
  2139 ;;      Totals:         0       0       0       0       0       0
  2140 ;;Total ram usage:        0 bytes
  2141 ;; Hardware stack levels used: 1
  2142 ;; Hardware stack levels required when called: 4
  2143 ;; This function calls:
  2144 ;;		Nothing
  2145 ;; This function is called by:
  2146 ;;		_main
  2147 ;; This function uses a non-reentrant model
  2148 ;;
  2149                           
  2150                           
  2151                           ;psect for function _TMR1_StartTimer
  2152  01D3                     _TMR1_StartTimer:
  2153  01D3                     l2469:	
  2154                           ;incstack = 0
  2155                           ; Regs used in _TMR1_StartTimer: []
  2156                           
  2157                           
  2158                           ;mcc_generated_files/tmr1.c: 96:     T1CONbits.TMR1ON = 1;
  2159  01D3  0020               	movlb	0	; select bank0
  2160  01D4  1418               	bsf	24,0	;volatile
  2161  01D5                     l748:
  2162  01D5  0008               	return
  2163  01D6                     __end_of_TMR1_StartTimer:
  2164                           
  2165                           	psect	text2
  2166  0102                     __ptext2:	
  2167 ;; *************** function _SYSTEM_Initialize *****************
  2168 ;; Defined at:
  2169 ;;		line 50 in file "mcc_generated_files/mcc.c"
  2170 ;; Parameters:    Size  Location     Type
  2171 ;;		None
  2172 ;; Auto vars:     Size  Location     Type
  2173 ;;		None
  2174 ;; Return value:  Size  Location     Type
  2175 ;;                  1    wreg      void 
  2176 ;; Registers used:
  2177 ;;		wreg, status,2, status,0, pclath, cstack
  2178 ;; Tracked objects:
  2179 ;;		On entry : 0/0
  2180 ;;		On exit  : 0/0
  2181 ;;		Unchanged: 0/0
  2182 ;; Data sizes:     COMMON   BANK0   BANK1   BANK2   BANK3   BANK4
  2183 ;;      Params:         0       0       0       0       0       0
  2184 ;;      Locals:         0       0       0       0       0       0
  2185 ;;      Temps:          0       0       0       0       0       0
  2186 ;;      Totals:         0       0       0       0       0       0
  2187 ;;Total ram usage:        0 bytes
  2188 ;; Hardware stack levels used: 1
  2189 ;; Hardware stack levels required when called: 6
  2190 ;; This function calls:
  2191 ;;		_EPWM1_Initialize
  2192 ;;		_I2C1_Initialize
  2193 ;;		_OSCILLATOR_Initialize
  2194 ;;		_PIN_MANAGER_Initialize
  2195 ;;		_TMR1_Initialize
  2196 ;;		_TMR2_Initialize
  2197 ;;		_TMR4_Initialize
  2198 ;;		_WDT_Initialize
  2199 ;; This function is called by:
  2200 ;;		_main
  2201 ;; This function uses a non-reentrant model
  2202 ;;
  2203                           
  2204                           
  2205                           ;psect for function _SYSTEM_Initialize
  2206  0102                     _SYSTEM_Initialize:
  2207  0102                     l2453:	
  2208                           ;incstack = 0
  2209                           ; Regs used in _SYSTEM_Initialize: [wreg+status,2+status,0+pclath+cstack]
  2210                           
  2211                           
  2212                           ;mcc_generated_files/mcc.c: 53:     I2C1_Initialize();
  2213  0102  3181  21A1  3181   	fcall	_I2C1_Initialize
  2214                           
  2215                           ;mcc_generated_files/mcc.c: 54:     PIN_MANAGER_Initialize();
  2216  0105  3181  2134  3181   	fcall	_PIN_MANAGER_Initialize
  2217                           
  2218                           ;mcc_generated_files/mcc.c: 55:     OSCILLATOR_Initialize();
  2219  0108  3181  21B2  3181   	fcall	_OSCILLATOR_Initialize
  2220                           
  2221                           ;mcc_generated_files/mcc.c: 56:     WDT_Initialize();
  2222  010B  3181  21CF  3181   	fcall	_WDT_Initialize
  2223                           
  2224                           ;mcc_generated_files/mcc.c: 57:     EPWM1_Initialize();
  2225  010E  3181  2194  3181   	fcall	_EPWM1_Initialize
  2226                           
  2227                           ;mcc_generated_files/mcc.c: 58:     TMR4_Initialize();
  2228  0111  3181  2161  3181   	fcall	_TMR4_Initialize
  2229                           
  2230                           ;mcc_generated_files/mcc.c: 59:     TMR2_Initialize();
  2231  0114  3181  21AA  3181   	fcall	_TMR2_Initialize
  2232                           
  2233                           ;mcc_generated_files/mcc.c: 60:     TMR1_Initialize();
  2234  0117  3181  211B  3181   	fcall	_TMR1_Initialize
  2235  011A                     l252:
  2236  011A  0008               	return
  2237  011B                     __end_of_SYSTEM_Initialize:
  2238                           
  2239                           	psect	text3
  2240  01CF                     __ptext3:	
  2241 ;; *************** function _WDT_Initialize *****************
  2242 ;; Defined at:
  2243 ;;		line 73 in file "mcc_generated_files/mcc.c"
  2244 ;; Parameters:    Size  Location     Type
  2245 ;;		None
  2246 ;; Auto vars:     Size  Location     Type
  2247 ;;		None
  2248 ;; Return value:  Size  Location     Type
  2249 ;;                  1    wreg      void 
  2250 ;; Registers used:
  2251 ;;		wreg
  2252 ;; Tracked objects:
  2253 ;;		On entry : 0/0
  2254 ;;		On exit  : 0/0
  2255 ;;		Unchanged: 0/0
  2256 ;; Data sizes:     COMMON   BANK0   BANK1   BANK2   BANK3   BANK4
  2257 ;;      Params:         0       0       0       0       0       0
  2258 ;;      Locals:         0       0       0       0       0       0
  2259 ;;      Temps:          0       0       0       0       0       0
  2260 ;;      Totals:         0       0       0       0       0       0
  2261 ;;Total ram usage:        0 bytes
  2262 ;; Hardware stack levels used: 1
  2263 ;; Hardware stack levels required when called: 4
  2264 ;; This function calls:
  2265 ;;		Nothing
  2266 ;; This function is called by:
  2267 ;;		_SYSTEM_Initialize
  2268 ;; This function uses a non-reentrant model
  2269 ;;
  2270                           
  2271                           
  2272                           ;psect for function _WDT_Initialize
  2273  01CF                     _WDT_Initialize:
  2274  01CF                     l2379:	
  2275                           ;incstack = 0
  2276                           ; Regs used in _WDT_Initialize: [wreg]
  2277                           
  2278                           
  2279                           ;mcc_generated_files/mcc.c: 76:     WDTCON = 0x16;
  2280  01CF  3016               	movlw	22
  2281  01D0  0021               	movlb	1	; select bank1
  2282  01D1  0097               	movwf	23	;volatile
  2283  01D2                     l258:
  2284  01D2  0008               	return
  2285  01D3                     __end_of_WDT_Initialize:
  2286                           
  2287                           	psect	text4
  2288  0161                     __ptext4:	
  2289 ;; *************** function _TMR4_Initialize *****************
  2290 ;; Defined at:
  2291 ;;		line 64 in file "mcc_generated_files/tmr4.c"
  2292 ;; Parameters:    Size  Location     Type
  2293 ;;		None
  2294 ;; Auto vars:     Size  Location     Type
  2295 ;;		None
  2296 ;; Return value:  Size  Location     Type
  2297 ;;                  1    wreg      void 
  2298 ;; Registers used:
  2299 ;;		wreg, status,2, status,0, pclath, cstack
  2300 ;; Tracked objects:
  2301 ;;		On entry : 0/0
  2302 ;;		On exit  : 0/0
  2303 ;;		Unchanged: 0/0
  2304 ;; Data sizes:     COMMON   BANK0   BANK1   BANK2   BANK3   BANK4
  2305 ;;      Params:         0       0       0       0       0       0
  2306 ;;      Locals:         0       0       0       0       0       0
  2307 ;;      Temps:          0       0       0       0       0       0
  2308 ;;      Totals:         0       0       0       0       0       0
  2309 ;;Total ram usage:        0 bytes
  2310 ;; Hardware stack levels used: 1
  2311 ;; Hardware stack levels required when called: 5
  2312 ;; This function calls:
  2313 ;;		_TMR4_SetInterruptHandler
  2314 ;; This function is called by:
  2315 ;;		_SYSTEM_Initialize
  2316 ;; This function uses a non-reentrant model
  2317 ;;
  2318                           
  2319                           
  2320                           ;psect for function _TMR4_Initialize
  2321  0161                     _TMR4_Initialize:
  2322  0161                     l2395:	
  2323                           ;incstack = 0
  2324                           ; Regs used in _TMR4_Initialize: [wreg+status,2+status,0+pclath+cstack]
  2325                           
  2326                           
  2327                           ;mcc_generated_files/tmr4.c: 69:     PR4 = 0xF3;
  2328  0161  30F3               	movlw	243
  2329  0162  0028               	movlb	8	; select bank8
  2330  0163  0096               	movwf	22	;volatile
  2331  0164                     l2397:
  2332                           
  2333                           ;mcc_generated_files/tmr4.c: 72:     TMR4 = 0x00;
  2334  0164  0195               	clrf	21	;volatile
  2335  0165                     l2399:
  2336                           
  2337                           ;mcc_generated_files/tmr4.c: 75:     PIR3bits.TMR4IF = 0;
  2338  0165  0020               	movlb	0	; select bank0
  2339  0166  1093               	bcf	19,1	;volatile
  2340  0167                     l2401:
  2341                           
  2342                           ;mcc_generated_files/tmr4.c: 78:     PIE3bits.TMR4IE = 1;
  2343  0167  0021               	movlb	1	; select bank1
  2344  0168  1493               	bsf	19,1	;volatile
  2345  0169                     l2403:
  2346                           
  2347                           ;mcc_generated_files/tmr4.c: 81:     TMR4_SetInterruptHandler(TMR4_DefaultInterruptHandl
      +                          er);
  2348  0169  30D6               	movlw	low _TMR4_DefaultInterruptHandler
  2349  016A  0020               	movlb	0	; select bank0
  2350  016B  00CA               	movwf	TMR4_SetInterruptHandler@InterruptHandler
  2351  016C  3001               	movlw	high _TMR4_DefaultInterruptHandler
  2352  016D  00CB               	movwf	TMR4_SetInterruptHandler@InterruptHandler+1
  2353  016E  3181  21BF  3181   	fcall	_TMR4_SetInterruptHandler
  2354  0171                     l2405:
  2355                           
  2356                           ;mcc_generated_files/tmr4.c: 84:     T4CON = 0x7F;
  2357  0171  307F               	movlw	127
  2358  0172  0028               	movlb	8	; select bank8
  2359  0173  0097               	movwf	23	;volatile
  2360  0174                     l279:
  2361  0174  0008               	return
  2362  0175                     __end_of_TMR4_Initialize:
  2363                           
  2364                           	psect	text5
  2365  01BF                     __ptext5:	
  2366 ;; *************** function _TMR4_SetInterruptHandler *****************
  2367 ;; Defined at:
  2368 ;;		line 132 in file "mcc_generated_files/tmr4.c"
  2369 ;; Parameters:    Size  Location     Type
  2370 ;;  InterruptHan    2    0[BANK0 ] PTR FTN()void 
  2371 ;;		 -> TMR4_DefaultInterruptHandler(1), 
  2372 ;; Auto vars:     Size  Location     Type
  2373 ;;		None
  2374 ;; Return value:  Size  Location     Type
  2375 ;;                  1    wreg      void 
  2376 ;; Registers used:
  2377 ;;		wreg
  2378 ;; Tracked objects:
  2379 ;;		On entry : 0/0
  2380 ;;		On exit  : 0/0
  2381 ;;		Unchanged: 0/0
  2382 ;; Data sizes:     COMMON   BANK0   BANK1   BANK2   BANK3   BANK4
  2383 ;;      Params:         0       2       0       0       0       0
  2384 ;;      Locals:         0       0       0       0       0       0
  2385 ;;      Temps:          0       0       0       0       0       0
  2386 ;;      Totals:         0       2       0       0       0       0
  2387 ;;Total ram usage:        2 bytes
  2388 ;; Hardware stack levels used: 1
  2389 ;; Hardware stack levels required when called: 4
  2390 ;; This function calls:
  2391 ;;		Nothing
  2392 ;; This function is called by:
  2393 ;;		_TMR4_Initialize
  2394 ;; This function uses a non-reentrant model
  2395 ;;
  2396                           
  2397                           
  2398                           ;psect for function _TMR4_SetInterruptHandler
  2399  01BF                     _TMR4_SetInterruptHandler:
  2400  01BF                     l2319:	
  2401                           ;incstack = 0
  2402                           ; Regs used in _TMR4_SetInterruptHandler: [wreg]
  2403                           
  2404                           
  2405                           ;mcc_generated_files/tmr4.c: 133:     TMR4_InterruptHandler = InterruptHandler;
  2406  01BF  0020               	movlb	0	; select bank0
  2407  01C0  084B               	movf	TMR4_SetInterruptHandler@InterruptHandler+1,w
  2408  01C1  00C5               	movwf	_TMR4_InterruptHandler+1
  2409  01C2  084A               	movf	TMR4_SetInterruptHandler@InterruptHandler,w
  2410  01C3  00C4               	movwf	_TMR4_InterruptHandler
  2411  01C4                     l301:
  2412  01C4  0008               	return
  2413  01C5                     __end_of_TMR4_SetInterruptHandler:
  2414                           
  2415                           	psect	text6
  2416  01AA                     __ptext6:	
  2417 ;; *************** function _TMR2_Initialize *****************
  2418 ;; Defined at:
  2419 ;;		line 62 in file "mcc_generated_files/tmr2.c"
  2420 ;; Parameters:    Size  Location     Type
  2421 ;;		None
  2422 ;; Auto vars:     Size  Location     Type
  2423 ;;		None
  2424 ;; Return value:  Size  Location     Type
  2425 ;;                  1    wreg      void 
  2426 ;; Registers used:
  2427 ;;		wreg, status,2
  2428 ;; Tracked objects:
  2429 ;;		On entry : 0/0
  2430 ;;		On exit  : 0/0
  2431 ;;		Unchanged: 0/0
  2432 ;; Data sizes:     COMMON   BANK0   BANK1   BANK2   BANK3   BANK4
  2433 ;;      Params:         0       0       0       0       0       0
  2434 ;;      Locals:         0       0       0       0       0       0
  2435 ;;      Temps:          0       0       0       0       0       0
  2436 ;;      Totals:         0       0       0       0       0       0
  2437 ;;Total ram usage:        0 bytes
  2438 ;; Hardware stack levels used: 1
  2439 ;; Hardware stack levels required when called: 4
  2440 ;; This function calls:
  2441 ;;		Nothing
  2442 ;; This function is called by:
  2443 ;;		_SYSTEM_Initialize
  2444 ;; This function uses a non-reentrant model
  2445 ;;
  2446                           
  2447                           
  2448                           ;psect for function _TMR2_Initialize
  2449  01AA                     _TMR2_Initialize:
  2450  01AA                     l2407:	
  2451                           ;incstack = 0
  2452                           ; Regs used in _TMR2_Initialize: [wreg+status,2]
  2453                           
  2454                           
  2455                           ;mcc_generated_files/tmr2.c: 67:     PR2 = 0x01;
  2456  01AA  3001               	movlw	1
  2457  01AB  0020               	movlb	0	; select bank0
  2458  01AC  009B               	movwf	27	;volatile
  2459  01AD                     l2409:
  2460                           
  2461                           ;mcc_generated_files/tmr2.c: 70:     TMR2 = 0x00;
  2462  01AD  019A               	clrf	26	;volatile
  2463  01AE                     l2411:
  2464                           
  2465                           ;mcc_generated_files/tmr2.c: 73:     PIR1bits.TMR2IF = 0;
  2466  01AE  1091               	bcf	17,1	;volatile
  2467  01AF                     l2413:
  2468                           
  2469                           ;mcc_generated_files/tmr2.c: 76:     T2CON = 0x07;
  2470  01AF  3007               	movlw	7
  2471  01B0  009C               	movwf	28	;volatile
  2472  01B1                     l699:
  2473  01B1  0008               	return
  2474  01B2                     __end_of_TMR2_Initialize:
  2475                           
  2476                           	psect	text7
  2477  011B                     __ptext7:	
  2478 ;; *************** function _TMR1_Initialize *****************
  2479 ;; Defined at:
  2480 ;;		line 64 in file "mcc_generated_files/tmr1.c"
  2481 ;; Parameters:    Size  Location     Type
  2482 ;;		None
  2483 ;; Auto vars:     Size  Location     Type
  2484 ;;		None
  2485 ;; Return value:  Size  Location     Type
  2486 ;;                  1    wreg      void 
  2487 ;; Registers used:
  2488 ;;		wreg, status,2, status,0, pclath, cstack
  2489 ;; Tracked objects:
  2490 ;;		On entry : 0/0
  2491 ;;		On exit  : 0/0
  2492 ;;		Unchanged: 0/0
  2493 ;; Data sizes:     COMMON   BANK0   BANK1   BANK2   BANK3   BANK4
  2494 ;;      Params:         0       0       0       0       0       0
  2495 ;;      Locals:         0       0       0       0       0       0
  2496 ;;      Temps:          0       0       0       0       0       0
  2497 ;;      Totals:         0       0       0       0       0       0
  2498 ;;Total ram usage:        0 bytes
  2499 ;; Hardware stack levels used: 1
  2500 ;; Hardware stack levels required when called: 5
  2501 ;; This function calls:
  2502 ;;		_TMR1_SetInterruptHandler
  2503 ;; This function is called by:
  2504 ;;		_SYSTEM_Initialize
  2505 ;; This function uses a non-reentrant model
  2506 ;;
  2507                           
  2508                           
  2509                           ;psect for function _TMR1_Initialize
  2510  011B                     _TMR1_Initialize:
  2511  011B                     l2415:	
  2512                           ;incstack = 0
  2513                           ; Regs used in _TMR1_Initialize: [wreg+status,2+status,0+pclath+cstack]
  2514                           
  2515                           
  2516                           ;mcc_generated_files/tmr1.c: 69:     T1GCON = 0x00;
  2517  011B  0020               	movlb	0	; select bank0
  2518  011C  0199               	clrf	25	;volatile
  2519  011D                     l2417:
  2520                           
  2521                           ;mcc_generated_files/tmr1.c: 72:     TMR1H = 0x0B;
  2522  011D  300B               	movlw	11
  2523  011E  0097               	movwf	23	;volatile
  2524  011F                     l2419:
  2525                           
  2526                           ;mcc_generated_files/tmr1.c: 75:     TMR1L = 0xDC;
  2527  011F  30DC               	movlw	220
  2528  0120  0096               	movwf	22	;volatile
  2529  0121                     l2421:
  2530                           
  2531                           ;mcc_generated_files/tmr1.c: 78:     PIR1bits.TMR1IF = 0;
  2532  0121  1011               	bcf	17,0	;volatile
  2533  0122                     l2423:
  2534                           
  2535                           ;mcc_generated_files/tmr1.c: 81:     timer1ReloadVal=(uint16_t)((TMR1H << 8) | TMR1L);
  2536  0122  0817               	movf	23,w	;volatile
  2537  0123  00FC               	movwf	_timer1ReloadVal+1	;volatile
  2538  0124  0816               	movf	22,w	;volatile
  2539  0125  00FB               	movwf	_timer1ReloadVal	;volatile
  2540  0126                     l2425:
  2541                           
  2542                           ;mcc_generated_files/tmr1.c: 84:     PIE1bits.TMR1IE = 1;
  2543  0126  0021               	movlb	1	; select bank1
  2544  0127  1411               	bsf	17,0	;volatile
  2545  0128                     l2427:
  2546                           
  2547                           ;mcc_generated_files/tmr1.c: 87:     TMR1_SetInterruptHandler(TMR1_DefaultInterruptHandl
      +                          er);
  2548  0128  30D7               	movlw	low _TMR1_DefaultInterruptHandler
  2549  0129  0020               	movlb	0	; select bank0
  2550  012A  00CA               	movwf	TMR1_SetInterruptHandler@InterruptHandler
  2551  012B  3001               	movlw	high _TMR1_DefaultInterruptHandler
  2552  012C  00CB               	movwf	TMR1_SetInterruptHandler@InterruptHandler+1
  2553  012D  3181  21C5  3181   	fcall	_TMR1_SetInterruptHandler
  2554  0130                     l2429:
  2555                           
  2556                           ;mcc_generated_files/tmr1.c: 90:     T1CON = 0x31;
  2557  0130  3031               	movlw	49
  2558  0131  0020               	movlb	0	; select bank0
  2559  0132  0098               	movwf	24	;volatile
  2560  0133                     l745:
  2561  0133  0008               	return
  2562  0134                     __end_of_TMR1_Initialize:
  2563                           
  2564                           	psect	text8
  2565  01C5                     __ptext8:	
  2566 ;; *************** function _TMR1_SetInterruptHandler *****************
  2567 ;; Defined at:
  2568 ;;		line 171 in file "mcc_generated_files/tmr1.c"
  2569 ;; Parameters:    Size  Location     Type
  2570 ;;  InterruptHan    2    0[BANK0 ] PTR FTN()void 
  2571 ;;		 -> toggle_LED(1), TMR1_DefaultInterruptHandler(1), 
  2572 ;; Auto vars:     Size  Location     Type
  2573 ;;		None
  2574 ;; Return value:  Size  Location     Type
  2575 ;;                  1    wreg      void 
  2576 ;; Registers used:
  2577 ;;		wreg
  2578 ;; Tracked objects:
  2579 ;;		On entry : 0/0
  2580 ;;		On exit  : 0/0
  2581 ;;		Unchanged: 0/0
  2582 ;; Data sizes:     COMMON   BANK0   BANK1   BANK2   BANK3   BANK4
  2583 ;;      Params:         0       2       0       0       0       0
  2584 ;;      Locals:         0       0       0       0       0       0
  2585 ;;      Temps:          0       0       0       0       0       0
  2586 ;;      Totals:         0       2       0       0       0       0
  2587 ;;Total ram usage:        2 bytes
  2588 ;; Hardware stack levels used: 1
  2589 ;; Hardware stack levels required when called: 4
  2590 ;; This function calls:
  2591 ;;		Nothing
  2592 ;; This function is called by:
  2593 ;;		_TMR1_Initialize
  2594 ;;		_main
  2595 ;; This function uses a non-reentrant model
  2596 ;;
  2597                           
  2598                           
  2599                           ;psect for function _TMR1_SetInterruptHandler
  2600  01C5                     _TMR1_SetInterruptHandler:
  2601  01C5                     l2321:	
  2602                           ;incstack = 0
  2603                           ; Regs used in _TMR1_SetInterruptHandler: [wreg]
  2604                           
  2605                           
  2606                           ;mcc_generated_files/tmr1.c: 172:     TMR1_InterruptHandler = InterruptHandler;
  2607  01C5  0020               	movlb	0	; select bank0
  2608  01C6  084B               	movf	TMR1_SetInterruptHandler@InterruptHandler+1,w
  2609  01C7  00C3               	movwf	_TMR1_InterruptHandler+1
  2610  01C8  084A               	movf	TMR1_SetInterruptHandler@InterruptHandler,w
  2611  01C9  00C2               	movwf	_TMR1_InterruptHandler
  2612  01CA                     l775:
  2613  01CA  0008               	return
  2614  01CB                     __end_of_TMR1_SetInterruptHandler:
  2615                           
  2616                           	psect	text9
  2617  0134                     __ptext9:	
  2618 ;; *************** function _PIN_MANAGER_Initialize *****************
  2619 ;; Defined at:
  2620 ;;		line 55 in file "mcc_generated_files/pin_manager.c"
  2621 ;; Parameters:    Size  Location     Type
  2622 ;;		None
  2623 ;; Auto vars:     Size  Location     Type
  2624 ;;		None
  2625 ;; Return value:  Size  Location     Type
  2626 ;;                  1    wreg      void 
  2627 ;; Registers used:
  2628 ;;		wreg, status,2
  2629 ;; Tracked objects:
  2630 ;;		On entry : 0/0
  2631 ;;		On exit  : 0/0
  2632 ;;		Unchanged: 0/0
  2633 ;; Data sizes:     COMMON   BANK0   BANK1   BANK2   BANK3   BANK4
  2634 ;;      Params:         0       0       0       0       0       0
  2635 ;;      Locals:         0       0       0       0       0       0
  2636 ;;      Temps:          0       0       0       0       0       0
  2637 ;;      Totals:         0       0       0       0       0       0
  2638 ;;Total ram usage:        0 bytes
  2639 ;; Hardware stack levels used: 1
  2640 ;; Hardware stack levels required when called: 4
  2641 ;; This function calls:
  2642 ;;		Nothing
  2643 ;; This function is called by:
  2644 ;;		_SYSTEM_Initialize
  2645 ;; This function uses a non-reentrant model
  2646 ;;
  2647                           
  2648                           
  2649                           ;psect for function _PIN_MANAGER_Initialize
  2650  0134                     _PIN_MANAGER_Initialize:
  2651  0134                     l2343:	
  2652                           ;incstack = 0
  2653                           ; Regs used in _PIN_MANAGER_Initialize: [wreg+status,2]
  2654                           
  2655                           
  2656                           ;mcc_generated_files/pin_manager.c: 60:     LATA = 0x02;
  2657  0134  3002               	movlw	2
  2658  0135  0022               	movlb	2	; select bank2
  2659  0136  008C               	movwf	12	;volatile
  2660  0137                     l2345:
  2661                           
  2662                           ;mcc_generated_files/pin_manager.c: 61:     LATB = 0x00;
  2663  0137  018D               	clrf	13	;volatile
  2664  0138                     l2347:
  2665                           
  2666                           ;mcc_generated_files/pin_manager.c: 66:     TRISA = 0xFD;
  2667  0138  30FD               	movlw	253
  2668  0139  0021               	movlb	1	; select bank1
  2669  013A  008C               	movwf	12	;volatile
  2670  013B                     l2349:
  2671                           
  2672                           ;mcc_generated_files/pin_manager.c: 67:     TRISB = 0xF7;
  2673  013B  30F7               	movlw	247
  2674  013C  008D               	movwf	13	;volatile
  2675  013D                     l2351:
  2676                           
  2677                           ;mcc_generated_files/pin_manager.c: 72:     ANSELB = 0xE4;
  2678  013D  30E4               	movlw	228
  2679  013E  0023               	movlb	3	; select bank3
  2680  013F  008D               	movwf	13	;volatile
  2681  0140                     l2353:
  2682                           
  2683                           ;mcc_generated_files/pin_manager.c: 73:     ANSELA = 0x1F;
  2684  0140  301F               	movlw	31
  2685  0141  008C               	movwf	12	;volatile
  2686  0142                     l2355:
  2687                           
  2688                           ;mcc_generated_files/pin_manager.c: 78:     WPUB = 0x00;
  2689  0142  0024               	movlb	4	; select bank4
  2690  0143  018D               	clrf	13	;volatile
  2691  0144                     l2357:
  2692                           
  2693                           ;mcc_generated_files/pin_manager.c: 79:     WPUA = 0x00;
  2694  0144  018C               	clrf	12	;volatile
  2695  0145                     l2359:
  2696                           
  2697                           ;mcc_generated_files/pin_manager.c: 80:     OPTION_REGbits.nWPUEN = 1;
  2698  0145  0021               	movlb	1	; select bank1
  2699  0146  1795               	bsf	21,7	;volatile
  2700  0147                     l2361:
  2701                           
  2702                           ;mcc_generated_files/pin_manager.c: 86:     APFCON0 = 0x00;
  2703  0147  0022               	movlb	2	; select bank2
  2704  0148  019D               	clrf	29	;volatile
  2705  0149                     l2363:
  2706                           
  2707                           ;mcc_generated_files/pin_manager.c: 87:     APFCON1 = 0x00;
  2708  0149  019E               	clrf	30	;volatile
  2709  014A                     l222:
  2710  014A  0008               	return
  2711  014B                     __end_of_PIN_MANAGER_Initialize:
  2712                           
  2713                           	psect	text10
  2714  01B2                     __ptext10:	
  2715 ;; *************** function _OSCILLATOR_Initialize *****************
  2716 ;; Defined at:
  2717 ;;		line 63 in file "mcc_generated_files/mcc.c"
  2718 ;; Parameters:    Size  Location     Type
  2719 ;;		None
  2720 ;; Auto vars:     Size  Location     Type
  2721 ;;		None
  2722 ;; Return value:  Size  Location     Type
  2723 ;;                  1    wreg      void 
  2724 ;; Registers used:
  2725 ;;		wreg, status,2
  2726 ;; Tracked objects:
  2727 ;;		On entry : 0/0
  2728 ;;		On exit  : 0/0
  2729 ;;		Unchanged: 0/0
  2730 ;; Data sizes:     COMMON   BANK0   BANK1   BANK2   BANK3   BANK4
  2731 ;;      Params:         0       0       0       0       0       0
  2732 ;;      Locals:         0       0       0       0       0       0
  2733 ;;      Temps:          0       0       0       0       0       0
  2734 ;;      Totals:         0       0       0       0       0       0
  2735 ;;Total ram usage:        0 bytes
  2736 ;; Hardware stack levels used: 1
  2737 ;; Hardware stack levels required when called: 4
  2738 ;; This function calls:
  2739 ;;		Nothing
  2740 ;; This function is called by:
  2741 ;;		_SYSTEM_Initialize
  2742 ;; This function uses a non-reentrant model
  2743 ;;
  2744                           
  2745                           
  2746                           ;psect for function _OSCILLATOR_Initialize
  2747  01B2                     _OSCILLATOR_Initialize:
  2748  01B2                     l2373:	
  2749                           ;incstack = 0
  2750                           ; Regs used in _OSCILLATOR_Initialize: [wreg+status,2]
  2751                           
  2752                           
  2753                           ;mcc_generated_files/mcc.c: 66:     OSCCON = 0x38;
  2754  01B2  3038               	movlw	56
  2755  01B3  0021               	movlb	1	; select bank1
  2756  01B4  0099               	movwf	25	;volatile
  2757  01B5                     l2375:
  2758                           
  2759                           ;mcc_generated_files/mcc.c: 68:     OSCTUNE = 0x00;
  2760  01B5  0198               	clrf	24	;volatile
  2761  01B6                     l2377:
  2762                           
  2763                           ;mcc_generated_files/mcc.c: 70:     BORCON = 0x00;
  2764  01B6  0022               	movlb	2	; select bank2
  2765  01B7  0196               	clrf	22	;volatile
  2766  01B8                     l255:
  2767  01B8  0008               	return
  2768  01B9                     __end_of_OSCILLATOR_Initialize:
  2769                           
  2770                           	psect	text11
  2771  01A1                     __ptext11:	
  2772 ;; *************** function _I2C1_Initialize *****************
  2773 ;; Defined at:
  2774 ;;		line 167 in file "mcc_generated_files/i2c1_master.c"
  2775 ;; Parameters:    Size  Location     Type
  2776 ;;		None
  2777 ;; Auto vars:     Size  Location     Type
  2778 ;;		None
  2779 ;; Return value:  Size  Location     Type
  2780 ;;                  1    wreg      void 
  2781 ;; Registers used:
  2782 ;;		wreg, status,2
  2783 ;; Tracked objects:
  2784 ;;		On entry : 0/0
  2785 ;;		On exit  : 0/0
  2786 ;;		Unchanged: 0/0
  2787 ;; Data sizes:     COMMON   BANK0   BANK1   BANK2   BANK3   BANK4
  2788 ;;      Params:         0       0       0       0       0       0
  2789 ;;      Locals:         0       0       0       0       0       0
  2790 ;;      Temps:          0       0       0       0       0       0
  2791 ;;      Totals:         0       0       0       0       0       0
  2792 ;;Total ram usage:        0 bytes
  2793 ;; Hardware stack levels used: 1
  2794 ;; Hardware stack levels required when called: 4
  2795 ;; This function calls:
  2796 ;;		Nothing
  2797 ;; This function is called by:
  2798 ;;		_SYSTEM_Initialize
  2799 ;; This function uses a non-reentrant model
  2800 ;;
  2801                           
  2802                           
  2803                           ;psect for function _I2C1_Initialize
  2804  01A1                     _I2C1_Initialize:
  2805  01A1                     l2365:	
  2806                           ;incstack = 0
  2807                           ; Regs used in _I2C1_Initialize: [wreg+status,2]
  2808                           
  2809                           
  2810                           ;mcc_generated_files/i2c1_master.c: 169:     SSP1STAT = 0x00;
  2811  01A1  0024               	movlb	4	; select bank4
  2812  01A2  0194               	clrf	20	;volatile
  2813  01A3                     l2367:
  2814                           
  2815                           ;mcc_generated_files/i2c1_master.c: 170:     SSP1CON1 = 0x08;
  2816  01A3  3008               	movlw	8
  2817  01A4  0095               	movwf	21	;volatile
  2818  01A5                     l2369:
  2819                           
  2820                           ;mcc_generated_files/i2c1_master.c: 171:     SSP1CON2 = 0x00;
  2821  01A5  0196               	clrf	22	;volatile
  2822                           
  2823                           ;mcc_generated_files/i2c1_master.c: 172:     SSP1ADD = 0x03;
  2824  01A6  3003               	movlw	3
  2825  01A7  0092               	movwf	18	;volatile
  2826  01A8                     l2371:
  2827                           
  2828                           ;mcc_generated_files/i2c1_master.c: 173:     SSP1CON1bits.SSPEN = 0;
  2829  01A8  1295               	bcf	21,5	;volatile
  2830  01A9                     l436:
  2831  01A9  0008               	return
  2832  01AA                     __end_of_I2C1_Initialize:
  2833                           
  2834                           	psect	text12
  2835  0194                     __ptext12:	
  2836 ;; *************** function _EPWM1_Initialize *****************
  2837 ;; Defined at:
  2838 ;;		line 64 in file "mcc_generated_files/epwm1.c"
  2839 ;; Parameters:    Size  Location     Type
  2840 ;;		None
  2841 ;; Auto vars:     Size  Location     Type
  2842 ;;		None
  2843 ;; Return value:  Size  Location     Type
  2844 ;;                  1    wreg      void 
  2845 ;; Registers used:
  2846 ;;		wreg, status,2, status,0
  2847 ;; Tracked objects:
  2848 ;;		On entry : 0/0
  2849 ;;		On exit  : 0/0
  2850 ;;		Unchanged: 0/0
  2851 ;; Data sizes:     COMMON   BANK0   BANK1   BANK2   BANK3   BANK4
  2852 ;;      Params:         0       0       0       0       0       0
  2853 ;;      Locals:         0       0       0       0       0       0
  2854 ;;      Temps:          0       0       0       0       0       0
  2855 ;;      Totals:         0       0       0       0       0       0
  2856 ;;Total ram usage:        0 bytes
  2857 ;; Hardware stack levels used: 1
  2858 ;; Hardware stack levels required when called: 4
  2859 ;; This function calls:
  2860 ;;		Nothing
  2861 ;; This function is called by:
  2862 ;;		_SYSTEM_Initialize
  2863 ;; This function uses a non-reentrant model
  2864 ;;
  2865                           
  2866                           
  2867                           ;psect for function _EPWM1_Initialize
  2868  0194                     _EPWM1_Initialize:
  2869  0194                     l2381:	
  2870                           ;incstack = 0
  2871                           ; Regs used in _EPWM1_Initialize: [wreg+status,2+status,0]
  2872                           
  2873                           
  2874                           ;mcc_generated_files/epwm1.c: 69:  CCP1CON = 0x3C;
  2875  0194  303C               	movlw	60
  2876  0195  0025               	movlb	5	; select bank5
  2877  0196  0093               	movwf	19	;volatile
  2878  0197                     l2383:
  2879                           
  2880                           ;mcc_generated_files/epwm1.c: 72:  ECCP1AS = 0x00;
  2881  0197  0195               	clrf	21	;volatile
  2882  0198                     l2385:
  2883                           
  2884                           ;mcc_generated_files/epwm1.c: 75:  PWM1CON = 0x80;
  2885  0198  3080               	movlw	128
  2886  0199  0094               	movwf	20	;volatile
  2887  019A                     l2387:
  2888                           
  2889                           ;mcc_generated_files/epwm1.c: 78:  PSTR1CON = 0x01;
  2890  019A  3001               	movlw	1
  2891  019B  0096               	movwf	22	;volatile
  2892  019C                     l2389:
  2893                           
  2894                           ;mcc_generated_files/epwm1.c: 81:  CCPR1H = 0x00;
  2895  019C  0192               	clrf	18	;volatile
  2896  019D                     l2391:
  2897                           
  2898                           ;mcc_generated_files/epwm1.c: 84:  CCPR1L = 0x00;
  2899  019D  0191               	clrf	17	;volatile
  2900  019E                     l2393:
  2901                           
  2902                           ;mcc_generated_files/epwm1.c: 87:  CCPTMRS0bits.C1TSEL = 0x0;
  2903  019E  30FC               	movlw	-4
  2904  019F  059E               	andwf	30,f	;volatile
  2905  01A0                     l683:
  2906  01A0  0008               	return
  2907  01A1                     __end_of_EPWM1_Initialize:
  2908                           
  2909                           	psect	intentry
  2910  0004                     __pintentry:	
  2911 ;; *************** function _INTERRUPT_InterruptManager *****************
  2912 ;; Defined at:
  2913 ;;		line 52 in file "mcc_generated_files/interrupt_manager.c"
  2914 ;; Parameters:    Size  Location     Type
  2915 ;;		None
  2916 ;; Auto vars:     Size  Location     Type
  2917 ;;		None
  2918 ;; Return value:  Size  Location     Type
  2919 ;;                  1    wreg      void 
  2920 ;; Registers used:
  2921 ;;		wreg, status,2, status,0, pclath, cstack
  2922 ;; Tracked objects:
  2923 ;;		On entry : 0/0
  2924 ;;		On exit  : 0/0
  2925 ;;		Unchanged: 0/0
  2926 ;; Data sizes:     COMMON   BANK0   BANK1   BANK2   BANK3   BANK4
  2927 ;;      Params:         0       0       0       0       0       0
  2928 ;;      Locals:         0       0       0       0       0       0
  2929 ;;      Temps:          0       0       0       0       0       0
  2930 ;;      Totals:         0       0       0       0       0       0
  2931 ;;Total ram usage:        0 bytes
  2932 ;; Hardware stack levels used: 1
  2933 ;; Hardware stack levels required when called: 3
  2934 ;; This function calls:
  2935 ;;		_TMR1_ISR
  2936 ;;		_TMR4_ISR
  2937 ;; This function is called by:
  2938 ;;		Interrupt level 1
  2939 ;; This function uses a non-reentrant model
  2940 ;;
  2941                           
  2942  0004                     _INTERRUPT_InterruptManager:
  2943                           
  2944                           ;incstack = 0
  2945  0004  147E               	bsf	int$flags,0	;set compiler interrupt flag (level 1)
  2946                           
  2947                           ; Regs used in _INTERRUPT_InterruptManager: [wreg+status,2+status,0+pclath+cstack]
  2948  0005  3180               	pagesel	$
  2949  0006                     i1l2471:
  2950                           
  2951                           ;mcc_generated_files/interrupt_manager.c: 55:     if(INTCONbits.PEIE == 1)
  2952  0006  1F0B               	btfss	11,6	;volatile
  2953  0007  2809               	goto	u74_21
  2954  0008  280A               	goto	u74_20
  2955  0009                     u74_21:
  2956  0009  2826               	goto	i1l329
  2957  000A                     u74_20:
  2958  000A                     i1l2473:
  2959                           
  2960                           ;mcc_generated_files/interrupt_manager.c: 56:     {;mcc_generated_files/interrupt_manage
      +                          r.c: 57:         if(PIE3bits.TMR4IE == 1 && PIR3bits.TMR4IF == 1)
  2961  000A  0021               	movlb	1	; select bank1
  2962  000B  1C93               	btfss	19,1	;volatile
  2963  000C  280E               	goto	u75_21
  2964  000D  280F               	goto	u75_20
  2965  000E                     u75_21:
  2966  000E  2818               	goto	i1l324
  2967  000F                     u75_20:
  2968  000F                     i1l2475:
  2969  000F  0020               	movlb	0	; select bank0
  2970  0010  1C93               	btfss	19,1	;volatile
  2971  0011  2813               	goto	u76_21
  2972  0012  2814               	goto	u76_20
  2973  0013                     u76_21:
  2974  0013  2818               	goto	i1l324
  2975  0014                     u76_20:
  2976  0014                     i1l2477:
  2977                           
  2978                           ;mcc_generated_files/interrupt_manager.c: 58:         {;mcc_generated_files/interrupt_ma
      +                          nager.c: 59:             TMR4_ISR();
  2979  0014  3181  2186  3180   	fcall	_TMR4_ISR
  2980                           
  2981                           ;mcc_generated_files/interrupt_manager.c: 60:         }
  2982  0017  2826               	goto	i1l329
  2983  0018                     i1l324:	
  2984                           ;mcc_generated_files/interrupt_manager.c: 61:         else if(PIE1bits.TMR1IE == 1 && PI
      +                          R1bits.TMR1IF == 1)
  2985                           
  2986  0018  0021               	movlb	1	; select bank1
  2987  0019  1C11               	btfss	17,0	;volatile
  2988  001A  281C               	goto	u77_21
  2989  001B  281D               	goto	u77_20
  2990  001C                     u77_21:
  2991  001C  2826               	goto	i1l325
  2992  001D                     u77_20:
  2993  001D                     i1l2479:
  2994  001D  0020               	movlb	0	; select bank0
  2995  001E  1C11               	btfss	17,0	;volatile
  2996  001F  2821               	goto	u78_21
  2997  0020  2822               	goto	u78_20
  2998  0021                     u78_21:
  2999  0021  2826               	goto	i1l325
  3000  0022                     u78_20:
  3001  0022                     i1l2481:
  3002                           
  3003                           ;mcc_generated_files/interrupt_manager.c: 62:         {;mcc_generated_files/interrupt_ma
      +                          nager.c: 63:             TMR1_ISR();
  3004  0022  3181  214B  3180   	fcall	_TMR1_ISR
  3005                           
  3006                           ;mcc_generated_files/interrupt_manager.c: 64:         }
  3007  0025  2826               	goto	i1l329
  3008  0026                     i1l325:
  3009  0026                     i1l329:	
  3010                           ;mcc_generated_files/interrupt_manager.c: 69:     }
  3011                           
  3012  0026  107E               	bcf	int$flags,0	;clear compiler interrupt flag (level 1)
  3013  0027  0009               	retfie
  3014  0028                     __end_of_INTERRUPT_InterruptManager:
  3015                           
  3016                           	psect	text14
  3017  0186                     __ptext14:	
  3018 ;; *************** function _TMR4_ISR *****************
  3019 ;; Defined at:
  3020 ;;		line 119 in file "mcc_generated_files/tmr4.c"
  3021 ;; Parameters:    Size  Location     Type
  3022 ;;		None
  3023 ;; Auto vars:     Size  Location     Type
  3024 ;;		None
  3025 ;; Return value:  Size  Location     Type
  3026 ;;                  1    wreg      void 
  3027 ;; Registers used:
  3028 ;;		wreg, status,2, status,0, pclath, cstack
  3029 ;; Tracked objects:
  3030 ;;		On entry : 0/0
  3031 ;;		On exit  : 0/0
  3032 ;;		Unchanged: 0/0
  3033 ;; Data sizes:     COMMON   BANK0   BANK1   BANK2   BANK3   BANK4
  3034 ;;      Params:         0       0       0       0       0       0
  3035 ;;      Locals:         0       0       0       0       0       0
  3036 ;;      Temps:          0       0       0       0       0       0
  3037 ;;      Totals:         0       0       0       0       0       0
  3038 ;;Total ram usage:        0 bytes
  3039 ;; Hardware stack levels used: 1
  3040 ;; Hardware stack levels required when called: 1
  3041 ;; This function calls:
  3042 ;;		Absolute function
  3043 ;;		_TMR4_DefaultInterruptHandler
  3044 ;; This function is called by:
  3045 ;;		_INTERRUPT_InterruptManager
  3046 ;; This function uses a non-reentrant model
  3047 ;;
  3048                           
  3049                           
  3050                           ;psect for function _TMR4_ISR
  3051  0186                     _TMR4_ISR:
  3052  0186                     i1l2455:	
  3053                           ;incstack = 0
  3054                           ; Regs used in _TMR4_ISR: [wreg+status,2+status,0+pclath+cstack]
  3055                           
  3056                           
  3057                           ;mcc_generated_files/tmr4.c: 123:     PIR3bits.TMR4IF = 0;
  3058  0186  0020               	movlb	0	; select bank0
  3059  0187  1093               	bcf	19,1	;volatile
  3060  0188                     i1l2457:
  3061                           
  3062                           ;mcc_generated_files/tmr4.c: 125:     if(TMR4_InterruptHandler)
  3063  0188  0844               	movf	_TMR4_InterruptHandler,w
  3064  0189  0445               	iorwf	_TMR4_InterruptHandler+1,w
  3065  018A  1903               	btfsc	3,2
  3066  018B  298D               	goto	u72_21
  3067  018C  298E               	goto	u72_20
  3068  018D                     u72_21:
  3069  018D  2993               	goto	i1l298
  3070  018E                     u72_20:
  3071  018E                     i1l2459:
  3072                           
  3073                           ;mcc_generated_files/tmr4.c: 126:     {;mcc_generated_files/tmr4.c: 127:         TMR4_In
      +                          terruptHandler();
  3074  018E  0845               	movf	_TMR4_InterruptHandler+1,w
  3075  018F  008A               	movwf	10
  3076  0190  0844               	movf	_TMR4_InterruptHandler,w
  3077  0191  000A               	callw
  3078  0192  3181               	pagesel	$
  3079  0193                     i1l298:
  3080  0193  0008               	return
  3081  0194                     __end_of_TMR4_ISR:
  3082                           
  3083                           	psect	text15
  3084  01D6                     __ptext15:	
  3085 ;; *************** function _TMR4_DefaultInterruptHandler *****************
  3086 ;; Defined at:
  3087 ;;		line 136 in file "mcc_generated_files/tmr4.c"
  3088 ;; Parameters:    Size  Location     Type
  3089 ;;		None
  3090 ;; Auto vars:     Size  Location     Type
  3091 ;;		None
  3092 ;; Return value:  Size  Location     Type
  3093 ;;                  1    wreg      void 
  3094 ;; Registers used:
  3095 ;;		None
  3096 ;; Tracked objects:
  3097 ;;		On entry : 0/0
  3098 ;;		On exit  : 0/0
  3099 ;;		Unchanged: 0/0
  3100 ;; Data sizes:     COMMON   BANK0   BANK1   BANK2   BANK3   BANK4
  3101 ;;      Params:         0       0       0       0       0       0
  3102 ;;      Locals:         0       0       0       0       0       0
  3103 ;;      Temps:          0       0       0       0       0       0
  3104 ;;      Totals:         0       0       0       0       0       0
  3105 ;;Total ram usage:        0 bytes
  3106 ;; Hardware stack levels used: 1
  3107 ;; This function calls:
  3108 ;;		Nothing
  3109 ;; This function is called by:
  3110 ;;		_TMR4_Initialize
  3111 ;;		_TMR4_ISR
  3112 ;; This function uses a non-reentrant model
  3113 ;;
  3114                           
  3115                           
  3116                           ;psect for function _TMR4_DefaultInterruptHandler
  3117  01D6                     _TMR4_DefaultInterruptHandler:
  3118  01D6                     i1l304:	
  3119                           ;incstack = 0
  3120                           ; Regs used in _TMR4_DefaultInterruptHandler: []
  3121                           
  3122  01D6  0008               	return
  3123  01D7                     __end_of_TMR4_DefaultInterruptHandler:
  3124                           
  3125                           	psect	text16
  3126  014B                     __ptext16:	
  3127 ;; *************** function _TMR1_ISR *****************
  3128 ;; Defined at:
  3129 ;;		line 157 in file "mcc_generated_files/tmr1.c"
  3130 ;; Parameters:    Size  Location     Type
  3131 ;;		None
  3132 ;; Auto vars:     Size  Location     Type
  3133 ;;		None
  3134 ;; Return value:  Size  Location     Type
  3135 ;;                  1    wreg      void 
  3136 ;; Registers used:
  3137 ;;		wreg, status,2, status,0, pclath, cstack
  3138 ;; Tracked objects:
  3139 ;;		On entry : 0/0
  3140 ;;		On exit  : 0/0
  3141 ;;		Unchanged: 0/0
  3142 ;; Data sizes:     COMMON   BANK0   BANK1   BANK2   BANK3   BANK4
  3143 ;;      Params:         0       0       0       0       0       0
  3144 ;;      Locals:         0       0       0       0       0       0
  3145 ;;      Temps:          0       0       0       0       0       0
  3146 ;;      Totals:         0       0       0       0       0       0
  3147 ;;Total ram usage:        0 bytes
  3148 ;; Hardware stack levels used: 1
  3149 ;; Hardware stack levels required when called: 2
  3150 ;; This function calls:
  3151 ;;		Absolute function
  3152 ;;		_TMR1_DefaultInterruptHandler
  3153 ;;		_TMR1_WriteTimer
  3154 ;;		_toggle_LED
  3155 ;; This function is called by:
  3156 ;;		_INTERRUPT_InterruptManager
  3157 ;; This function uses a non-reentrant model
  3158 ;;
  3159                           
  3160                           
  3161                           ;psect for function _TMR1_ISR
  3162  014B                     _TMR1_ISR:
  3163  014B                     i1l2461:	
  3164                           ;incstack = 0
  3165                           ; Regs used in _TMR1_ISR: [wreg+status,2+status,0+pclath+cstack]
  3166                           
  3167                           
  3168                           ;mcc_generated_files/tmr1.c: 161:     PIR1bits.TMR1IF = 0;
  3169  014B  0020               	movlb	0	; select bank0
  3170  014C  1011               	bcf	17,0	;volatile
  3171  014D                     i1l2463:
  3172                           
  3173                           ;mcc_generated_files/tmr1.c: 162:     TMR1_WriteTimer(timer1ReloadVal);
  3174  014D  087C               	movf	_timer1ReloadVal+1,w	;volatile
  3175  014E  00F1               	movwf	TMR1_WriteTimer@timerVal+1
  3176  014F  087B               	movf	_timer1ReloadVal,w	;volatile
  3177  0150  00F0               	movwf	TMR1_WriteTimer@timerVal
  3178  0151  3181  2175  3181   	fcall	_TMR1_WriteTimer
  3179  0154                     i1l2465:
  3180                           
  3181                           ;mcc_generated_files/tmr1.c: 164:     if(TMR1_InterruptHandler)
  3182  0154  0020               	movlb	0	; select bank0
  3183  0155  0842               	movf	_TMR1_InterruptHandler,w
  3184  0156  0443               	iorwf	_TMR1_InterruptHandler+1,w
  3185  0157  1903               	btfsc	3,2
  3186  0158  295A               	goto	u73_21
  3187  0159  295B               	goto	u73_20
  3188  015A                     u73_21:
  3189  015A  2960               	goto	i1l772
  3190  015B                     u73_20:
  3191  015B                     i1l2467:
  3192                           
  3193                           ;mcc_generated_files/tmr1.c: 165:     {;mcc_generated_files/tmr1.c: 166:         TMR1_In
      +                          terruptHandler();
  3194  015B  0843               	movf	_TMR1_InterruptHandler+1,w
  3195  015C  008A               	movwf	10
  3196  015D  0842               	movf	_TMR1_InterruptHandler,w
  3197  015E  000A               	callw
  3198  015F  3181               	pagesel	$
  3199  0160                     i1l772:
  3200  0160  0008               	return
  3201  0161                     __end_of_TMR1_ISR:
  3202                           
  3203                           	psect	text17
  3204  01D7                     __ptext17:	
  3205 ;; *************** function _TMR1_DefaultInterruptHandler *****************
  3206 ;; Defined at:
  3207 ;;		line 175 in file "mcc_generated_files/tmr1.c"
  3208 ;; Parameters:    Size  Location     Type
  3209 ;;		None
  3210 ;; Auto vars:     Size  Location     Type
  3211 ;;		None
  3212 ;; Return value:  Size  Location     Type
  3213 ;;                  1    wreg      void 
  3214 ;; Registers used:
  3215 ;;		None
  3216 ;; Tracked objects:
  3217 ;;		On entry : 0/0
  3218 ;;		On exit  : 0/0
  3219 ;;		Unchanged: 0/0
  3220 ;; Data sizes:     COMMON   BANK0   BANK1   BANK2   BANK3   BANK4
  3221 ;;      Params:         0       0       0       0       0       0
  3222 ;;      Locals:         0       0       0       0       0       0
  3223 ;;      Temps:          0       0       0       0       0       0
  3224 ;;      Totals:         0       0       0       0       0       0
  3225 ;;Total ram usage:        0 bytes
  3226 ;; Hardware stack levels used: 1
  3227 ;; This function calls:
  3228 ;;		Nothing
  3229 ;; This function is called by:
  3230 ;;		_TMR1_Initialize
  3231 ;;		_TMR1_ISR
  3232 ;; This function uses a non-reentrant model
  3233 ;;
  3234                           
  3235                           
  3236                           ;psect for function _TMR1_DefaultInterruptHandler
  3237  01D7                     _TMR1_DefaultInterruptHandler:
  3238  01D7                     i1l778:	
  3239                           ;incstack = 0
  3240                           ; Regs used in _TMR1_DefaultInterruptHandler: []
  3241                           
  3242  01D7  0008               	return
  3243  01D8                     __end_of_TMR1_DefaultInterruptHandler:
  3244                           
  3245                           	psect	text18
  3246  0090                     __ptext18:	
  3247 ;; *************** function _toggle_LED *****************
  3248 ;; Defined at:
  3249 ;;		line 59 in file "main.c"
  3250 ;; Parameters:    Size  Location     Type
  3251 ;;		None
  3252 ;; Auto vars:     Size  Location     Type
  3253 ;;		None
  3254 ;; Return value:  Size  Location     Type
  3255 ;;                  1    wreg      void 
  3256 ;; Registers used:
  3257 ;;		wreg, status,2, status,0, pclath, cstack
  3258 ;; Tracked objects:
  3259 ;;		On entry : 0/0
  3260 ;;		On exit  : 0/0
  3261 ;;		Unchanged: 0/0
  3262 ;; Data sizes:     COMMON   BANK0   BANK1   BANK2   BANK3   BANK4
  3263 ;;      Params:         0       0       0       0       0       0
  3264 ;;      Locals:         0       0       0       0       0       0
  3265 ;;      Temps:          1       0       0       0       0       0
  3266 ;;      Totals:         1       0       0       0       0       0
  3267 ;;Total ram usage:        1 bytes
  3268 ;; Hardware stack levels used: 1
  3269 ;; Hardware stack levels required when called: 1
  3270 ;; This function calls:
  3271 ;;		___llmod
  3272 ;; This function is called by:
  3273 ;;		_main
  3274 ;;		_TMR1_ISR
  3275 ;; This function uses a non-reentrant model
  3276 ;;
  3277                           
  3278                           
  3279                           ;psect for function _toggle_LED
  3280  0090                     _toggle_LED:
  3281  0090                     i1l2445:	
  3282                           ;incstack = 0
  3283                           ; Regs used in _toggle_LED: [wreg+status,2+status,0+pclath+cstack]
  3284                           
  3285                           
  3286                           ;main.c: 61:     LATAbits.LATA1^=1;
  3287  0090  0022               	movlb	2	; select bank2
  3288  0091  0C0C               	rrf	12,w	;volatile
  3289  0092  3901               	andlw	1
  3290  0093  00FA               	movwf	??_toggle_LED
  3291  0094  3001               	movlw	1
  3292  0095  06FA               	xorwf	??_toggle_LED,f
  3293  0096  0DFA               	rlf	??_toggle_LED,f
  3294  0097  080C               	movf	12,w	;volatile
  3295  0098  067A               	xorwf	??_toggle_LED,w
  3296  0099  39FD               	andlw	-3
  3297  009A  067A               	xorwf	??_toggle_LED,w
  3298  009B  008C               	movwf	12	;volatile
  3299  009C                     i1l2447:
  3300                           
  3301                           ;main.c: 62:     counter=(counter+1)%waiting_time;
  3302  009C  0020               	movlb	0	; select bank0
  3303  009D  0849               	movf	_waiting_time+3,w
  3304  009E  00F3               	movwf	___llmod@divisor+3
  3305  009F  0848               	movf	_waiting_time+2,w
  3306  00A0  00F2               	movwf	___llmod@divisor+2
  3307  00A1  0847               	movf	_waiting_time+1,w
  3308  00A2  00F1               	movwf	___llmod@divisor+1
  3309  00A3  0846               	movf	_waiting_time,w
  3310  00A4  00F0               	movwf	___llmod@divisor
  3311  00A5  3001               	movlw	1
  3312  00A6  073D               	addwf	_counter,w
  3313  00A7  00F4               	movwf	___llmod@dividend
  3314  00A8  3000               	movlw	0
  3315  00A9  3D3E               	addwfc	_counter+1,w
  3316  00AA  00F5               	movwf	___llmod@dividend+1
  3317  00AB  3000               	movlw	0
  3318  00AC  3D3F               	addwfc	_counter+2,w
  3319  00AD  00F6               	movwf	___llmod@dividend+2
  3320  00AE  3000               	movlw	0
  3321  00AF  3D40               	addwfc	_counter+3,w
  3322  00B0  00F7               	movwf	___llmod@dividend+3
  3323  00B1  3180  2046  3180   	fcall	___llmod
  3324  00B4  0873               	movf	?___llmod+3,w
  3325  00B5  0020               	movlb	0	; select bank0
  3326  00B6  00C0               	movwf	_counter+3
  3327  00B7  0872               	movf	?___llmod+2,w
  3328  00B8  00BF               	movwf	_counter+2
  3329  00B9  0871               	movf	?___llmod+1,w
  3330  00BA  00BE               	movwf	_counter+1
  3331  00BB  0870               	movf	?___llmod,w
  3332  00BC  00BD               	movwf	_counter
  3333  00BD                     i1l2449:
  3334                           
  3335                           ;main.c: 63:     if(counter==0)
  3336  00BD  0840               	movf	_counter+3,w
  3337  00BE  043F               	iorwf	_counter+2,w
  3338  00BF  043E               	iorwf	_counter+1,w
  3339  00C0  043D               	iorwf	_counter,w
  3340  00C1  1D03               	skipz
  3341  00C2  28C4               	goto	u71_21
  3342  00C3  28C5               	goto	u71_20
  3343  00C4                     u71_21:
  3344  00C4  28C7               	goto	i1l798
  3345  00C5                     u71_20:
  3346  00C5                     i1l2451:
  3347                           
  3348                           ;main.c: 64:         time_elapsed=1;
  3349  00C5  01C1               	clrf	_time_elapsed
  3350  00C6  0AC1               	incf	_time_elapsed,f
  3351  00C7                     i1l798:
  3352  00C7  0008               	return
  3353  00C8                     __end_of_toggle_LED:
  3354                           
  3355                           	psect	text19
  3356  0046                     __ptext19:	
  3357 ;; *************** function ___llmod *****************
  3358 ;; Defined at:
  3359 ;;		line 5 in file "/opt/microchip/xc8/v2.32/pic/sources/c99/common/llmod.c"
  3360 ;; Parameters:    Size  Location     Type
  3361 ;;  divisor         4    0[COMMON] unsigned long 
  3362 ;;  dividend        4    4[COMMON] unsigned long 
  3363 ;; Auto vars:     Size  Location     Type
  3364 ;;  counter         1    9[COMMON] unsigned char 
  3365 ;; Return value:  Size  Location     Type
  3366 ;;                  4    0[COMMON] unsigned long 
  3367 ;; Registers used:
  3368 ;;		wreg, status,2, status,0
  3369 ;; Tracked objects:
  3370 ;;		On entry : 0/0
  3371 ;;		On exit  : 0/0
  3372 ;;		Unchanged: 0/0
  3373 ;; Data sizes:     COMMON   BANK0   BANK1   BANK2   BANK3   BANK4
  3374 ;;      Params:         8       0       0       0       0       0
  3375 ;;      Locals:         1       0       0       0       0       0
  3376 ;;      Temps:          1       0       0       0       0       0
  3377 ;;      Totals:        10       0       0       0       0       0
  3378 ;;Total ram usage:       10 bytes
  3379 ;; Hardware stack levels used: 1
  3380 ;; This function calls:
  3381 ;;		Nothing
  3382 ;; This function is called by:
  3383 ;;		_toggle_LED
  3384 ;; This function uses a non-reentrant model
  3385 ;;
  3386                           
  3387                           
  3388                           ;psect for function ___llmod
  3389  0046                     ___llmod:
  3390  0046                     i1l2323:	
  3391                           ;incstack = 0
  3392                           ; Regs used in ___llmod: [wreg+status,2+status,0]
  3393                           
  3394  0046  0873               	movf	___llmod@divisor+3,w
  3395  0047  0472               	iorwf	___llmod@divisor+2,w
  3396  0048  0471               	iorwf	___llmod@divisor+1,w
  3397  0049  0470               	iorwf	___llmod@divisor,w
  3398  004A  1903               	skipnz
  3399  004B  284D               	goto	u64_21
  3400  004C  284E               	goto	u64_20
  3401  004D                     u64_21:
  3402  004D  2887               	goto	i1l2339
  3403  004E                     u64_20:
  3404  004E                     i1l2325:
  3405  004E  01F9               	clrf	___llmod@counter
  3406  004F  0AF9               	incf	___llmod@counter,f
  3407  0050  285C               	goto	i1l2329
  3408  0051                     i1l2327:
  3409  0051  3001               	movlw	1
  3410  0052                     u65_25:
  3411  0052  35F0               	lslf	___llmod@divisor,f
  3412  0053  0DF1               	rlf	___llmod@divisor+1,f
  3413  0054  0DF2               	rlf	___llmod@divisor+2,f
  3414  0055  0DF3               	rlf	___llmod@divisor+3,f
  3415  0056  0B89               	decfsz	9,f
  3416  0057  2852               	goto	u65_25
  3417  0058  3001               	movlw	1
  3418  0059  00F8               	movwf	??___llmod
  3419  005A  0878               	movf	??___llmod,w
  3420  005B  07F9               	addwf	___llmod@counter,f
  3421  005C                     i1l2329:
  3422  005C  1FF3               	btfss	___llmod@divisor+3,7
  3423  005D  285F               	goto	u66_21
  3424  005E  2860               	goto	u66_20
  3425  005F                     u66_21:
  3426  005F  2851               	goto	i1l2327
  3427  0060                     u66_20:
  3428  0060                     i1l2331:
  3429  0060  0873               	movf	___llmod@divisor+3,w
  3430  0061  0277               	subwf	___llmod@dividend+3,w
  3431  0062  1D03               	skipz
  3432  0063  286E               	goto	u67_25
  3433  0064  0872               	movf	___llmod@divisor+2,w
  3434  0065  0276               	subwf	___llmod@dividend+2,w
  3435  0066  1D03               	skipz
  3436  0067  286E               	goto	u67_25
  3437  0068  0871               	movf	___llmod@divisor+1,w
  3438  0069  0275               	subwf	___llmod@dividend+1,w
  3439  006A  1D03               	skipz
  3440  006B  286E               	goto	u67_25
  3441  006C  0870               	movf	___llmod@divisor,w
  3442  006D  0274               	subwf	___llmod@dividend,w
  3443  006E                     u67_25:
  3444  006E  1C03               	skipc
  3445  006F  2871               	goto	u67_21
  3446  0070  2872               	goto	u67_20
  3447  0071                     u67_21:
  3448  0071  287A               	goto	i1l2335
  3449  0072                     u67_20:
  3450  0072                     i1l2333:
  3451  0072  0870               	movf	___llmod@divisor,w
  3452  0073  02F4               	subwf	___llmod@dividend,f
  3453  0074  0871               	movf	___llmod@divisor+1,w
  3454  0075  3BF5               	subwfb	___llmod@dividend+1,f
  3455  0076  0872               	movf	___llmod@divisor+2,w
  3456  0077  3BF6               	subwfb	___llmod@dividend+2,f
  3457  0078  0873               	movf	___llmod@divisor+3,w
  3458  0079  3BF7               	subwfb	___llmod@dividend+3,f
  3459  007A                     i1l2335:
  3460  007A  3001               	movlw	1
  3461  007B                     u68_25:
  3462  007B  36F3               	lsrf	___llmod@divisor+3,f
  3463  007C  0CF2               	rrf	___llmod@divisor+2,f
  3464  007D  0CF1               	rrf	___llmod@divisor+1,f
  3465  007E  0CF0               	rrf	___llmod@divisor,f
  3466  007F  0B89               	decfsz	9,f
  3467  0080  287B               	goto	u68_25
  3468  0081                     i1l2337:
  3469  0081  3001               	movlw	1
  3470  0082  02F9               	subwf	___llmod@counter,f
  3471  0083  1D03               	btfss	3,2
  3472  0084  2886               	goto	u69_21
  3473  0085  2887               	goto	u69_20
  3474  0086                     u69_21:
  3475  0086  2860               	goto	i1l2331
  3476  0087                     u69_20:
  3477  0087                     i1l2339:
  3478  0087  0877               	movf	___llmod@dividend+3,w
  3479  0088  00F3               	movwf	?___llmod+3
  3480  0089  0876               	movf	___llmod@dividend+2,w
  3481  008A  00F2               	movwf	?___llmod+2
  3482  008B  0875               	movf	___llmod@dividend+1,w
  3483  008C  00F1               	movwf	?___llmod+1
  3484  008D  0874               	movf	___llmod@dividend,w
  3485  008E  00F0               	movwf	?___llmod
  3486  008F                     i1l1187:
  3487  008F  0008               	return
  3488  0090                     __end_of___llmod:
  3489                           
  3490                           	psect	text20
  3491  0175                     __ptext20:	
  3492 ;; *************** function _TMR1_WriteTimer *****************
  3493 ;; Defined at:
  3494 ;;		line 120 in file "mcc_generated_files/tmr1.c"
  3495 ;; Parameters:    Size  Location     Type
  3496 ;;  timerVal        2    0[COMMON] unsigned short 
  3497 ;; Auto vars:     Size  Location     Type
  3498 ;;		None
  3499 ;; Return value:  Size  Location     Type
  3500 ;;                  1    wreg      void 
  3501 ;; Registers used:
  3502 ;;		wreg, status,2
  3503 ;; Tracked objects:
  3504 ;;		On entry : 0/0
  3505 ;;		On exit  : 0/0
  3506 ;;		Unchanged: 0/0
  3507 ;; Data sizes:     COMMON   BANK0   BANK1   BANK2   BANK3   BANK4
  3508 ;;      Params:         2       0       0       0       0       0
  3509 ;;      Locals:         0       0       0       0       0       0
  3510 ;;      Temps:          0       0       0       0       0       0
  3511 ;;      Totals:         2       0       0       0       0       0
  3512 ;;Total ram usage:        2 bytes
  3513 ;; Hardware stack levels used: 1
  3514 ;; This function calls:
  3515 ;;		Nothing
  3516 ;; This function is called by:
  3517 ;;		_TMR1_ISR
  3518 ;;		_TMR1_Reload
  3519 ;; This function uses a non-reentrant model
  3520 ;;
  3521                           
  3522                           
  3523                           ;psect for function _TMR1_WriteTimer
  3524  0175                     _TMR1_WriteTimer:
  3525  0175                     i1l2431:	
  3526                           ;incstack = 0
  3527                           ; Regs used in _TMR1_WriteTimer: [wreg+status,2]
  3528                           
  3529                           
  3530                           ;mcc_generated_files/tmr1.c: 120: void TMR1_WriteTimer(uint16_t timerVal);mcc_generated_
      +                          files/tmr1.c: 121: {;mcc_generated_files/tmr1.c: 122:     if (T1CONbits.nT1SYNC == 1)
  3531  0175  0020               	movlb	0	; select bank0
  3532  0176  1D18               	btfss	24,2	;volatile
  3533  0177  2979               	goto	u70_21
  3534  0178  297A               	goto	u70_20
  3535  0179                     u70_21:
  3536  0179  2981               	goto	i1l2441
  3537  017A                     u70_20:
  3538  017A                     i1l2433:
  3539                           
  3540                           ;mcc_generated_files/tmr1.c: 123:     {;mcc_generated_files/tmr1.c: 125:         T1CONbi
      +                          ts.TMR1ON = 0;
  3541  017A  1018               	bcf	24,0	;volatile
  3542  017B                     i1l2435:
  3543                           
  3544                           ;mcc_generated_files/tmr1.c: 128:         TMR1H = (uint8_t)(timerVal >> 8);
  3545  017B  0871               	movf	TMR1_WriteTimer@timerVal+1,w
  3546  017C  0097               	movwf	23	;volatile
  3547  017D                     i1l2437:
  3548                           
  3549                           ;mcc_generated_files/tmr1.c: 129:         TMR1L = (uint8_t)timerVal;
  3550  017D  0870               	movf	TMR1_WriteTimer@timerVal,w
  3551  017E  0096               	movwf	22	;volatile
  3552  017F                     i1l2439:
  3553                           
  3554                           ;mcc_generated_files/tmr1.c: 132:         T1CONbits.TMR1ON =1;
  3555  017F  1418               	bsf	24,0	;volatile
  3556                           
  3557                           ;mcc_generated_files/tmr1.c: 133:     }
  3558  0180  2985               	goto	i1l759
  3559  0181                     i1l2441:
  3560                           
  3561                           ;mcc_generated_files/tmr1.c: 135:     {;mcc_generated_files/tmr1.c: 137:         TMR1H =
      +                           (uint8_t)(timerVal >> 8);
  3562  0181  0871               	movf	TMR1_WriteTimer@timerVal+1,w
  3563  0182  0097               	movwf	23	;volatile
  3564  0183                     i1l2443:
  3565                           
  3566                           ;mcc_generated_files/tmr1.c: 138:         TMR1L = (uint8_t)timerVal;
  3567  0183  0870               	movf	TMR1_WriteTimer@timerVal,w
  3568  0184  0096               	movwf	22	;volatile
  3569  0185                     i1l759:
  3570  0185  0008               	return
  3571  0186                     __end_of_TMR1_WriteTimer:
  3572  007E                     btemp	set	126	;btemp
  3573  007E                     int$flags	set	126
  3574  007E                     wtemp0	set	126
  3575                           
  3576                           	psect	config
  3577                           
  3578                           ;Config register CONFIG1 @ 0x8007
  3579                           ;	Oscillator Selection
  3580                           ;	FOSC = INTOSC, INTOSC oscillator: I/O function on CLKIN pin
  3581                           ;	Watchdog Timer Enable
  3582                           ;	WDTE = OFF, WDT disabled
  3583                           ;	Power-up Timer Enable
  3584                           ;	PWRTE = OFF, PWRT disabled
  3585                           ;	MCLR Pin Function Select
  3586                           ;	MCLRE = ON, MCLR/VPP pin function is MCLR
  3587                           ;	Flash Program Memory Code Protection
  3588                           ;	CP = OFF, Program memory code protection is disabled
  3589                           ;	Data Memory Code Protection
  3590                           ;	CPD = OFF, Data memory code protection is disabled
  3591                           ;	Brown-out Reset Enable
  3592                           ;	BOREN = ON, Brown-out Reset enabled
  3593                           ;	Clock Out Enable
  3594                           ;	CLKOUTEN = OFF, CLKOUT function is disabled. I/O or oscillator function on the CLKOUT 
      +                          pin
  3595                           ;	Internal/External Switchover
  3596                           ;	IESO = ON, Internal/External Switchover mode is enabled
  3597                           ;	Fail-Safe Clock Monitor Enable
  3598                           ;	FCMEN = ON, Fail-Safe Clock Monitor is enabled
  3599  8007                     	org	32775
  3600  8007  3FE4               	dw	16356
  3601                           
  3602                           ;Config register CONFIG2 @ 0x8008
  3603                           ;	Flash Memory Self-Write Protection
  3604                           ;	WRT = OFF, Write protection off
  3605                           ;	PLL Enable
  3606                           ;	PLLEN = OFF, 4x PLL disabled
  3607                           ;	Stack Overflow/Underflow Reset Enable
  3608                           ;	STVREN = ON, Stack Overflow or Underflow will cause a Reset
  3609                           ;	Brown-out Reset Voltage Selection
  3610                           ;	BORV = LO, Brown-out Reset Voltage (Vbor), low trip point selected.
  3611                           ;	Low-Voltage Programming Enable
  3612                           ;	LVP = OFF, High-voltage on MCLR/VPP must be used for programming
  3613  8008                     	org	32776
  3614  8008  1EFF               	dw	7935

Data Sizes:
    Strings     0
    Constant    32
    Data        4
    BSS         34
    Persistent  38
    Stack       0

Auto Spaces:
    Space          Size  Autos    Used
    COMMON           14     11      13
    BANK0            80      2      44
    BANK1            80      0       0
    BANK2            80      0       0
    BANK3            80      0       0
    BANK4            48      0       0

Pointer List with Targets:

    i2c_write1ByteRegister@data.data	PTR unsigned char  size(1) Largest target is 0

    i2c_read1ByteRegister@d2.data	PTR unsigned char  size(1) Largest target is 0

    i2c_read2ByteRegister@result.data	PTR unsigned char  size(1) Largest target is 0

    i2c_write2ByteRegister@data.data	PTR unsigned char  size(1) Largest target is 0

    I2C1_Read1ByteRegister@returnValue.data	PTR unsigned char  size(1) Largest target is 0

    I2C1_Read2ByteRegister@returnValue.data	PTR unsigned char  size(1) Largest target is 0

    I2C1_Write1ByteRegister@data.data	PTR unsigned char  size(1) Largest target is 0

    I2C1_Write2ByteRegister@data.data	PTR unsigned char  size(1) Largest target is 0

    I2C1_DO_TX$2179$0	PTR void  size(1) Largest target is 4
		 -> I2C1_ReadDataBlock@bufferBlock(COMMON[3]), I2C1_Write2ByteRegister@data(COMMON[2]), I2C1_Write1ByteRegister@data(COMMON[1]), I2C1_Read2ByteRegister@returnValue(COMMON[2]), 
		 -> I2C1_Read1ByteRegister@returnValue(COMMON[1]), i2c_readDataBlock@d(COMMON[3]), i2c_write2ByteRegister@data(COMMON[2]), i2c_read2ByteRegister@result(COMMON[2]), 
		 -> i2c_read1ByteRegister@d2(COMMON[1]), i2c_write1ByteRegister@data(COMMON[1]), NULL(NULL[0]), 

    cb$0	PTR void  size(1) Largest target is 4
		 -> I2C1_ReadDataBlock@bufferBlock(COMMON[3]), I2C1_Write2ByteRegister@data(COMMON[2]), I2C1_Write1ByteRegister@data(COMMON[1]), I2C1_Read2ByteRegister@returnValue(COMMON[2]), 
		 -> I2C1_Read1ByteRegister@returnValue(COMMON[1]), i2c_readDataBlock@d(COMMON[3]), i2c_write2ByteRegister@data(COMMON[2]), i2c_read2ByteRegister@result(COMMON[2]), 
		 -> i2c_read1ByteRegister@d2(COMMON[1]), i2c_write1ByteRegister@data(COMMON[1]), NULL(NULL[0]), 

    cb$0	PTR void  size(1) Largest target is 4
		 -> I2C1_ReadDataBlock@bufferBlock(COMMON[3]), I2C1_Write2ByteRegister@data(COMMON[2]), I2C1_Write1ByteRegister@data(COMMON[1]), I2C1_Read2ByteRegister@returnValue(COMMON[2]), 
		 -> I2C1_Read1ByteRegister@returnValue(COMMON[1]), i2c_readDataBlock@d(COMMON[3]), i2c_write2ByteRegister@data(COMMON[2]), i2c_read2ByteRegister@result(COMMON[2]), 
		 -> i2c_read1ByteRegister@d2(COMMON[1]), i2c_write1ByteRegister@data(COMMON[1]), NULL(NULL[0]), 

    S660$0$0	PTR void  size(1) Largest target is 4
		 -> I2C1_ReadDataBlock@bufferBlock(COMMON[3]), I2C1_Write2ByteRegister@data(COMMON[2]), I2C1_Write1ByteRegister@data(COMMON[1]), I2C1_Read2ByteRegister@returnValue(COMMON[2]), 
		 -> I2C1_Read1ByteRegister@returnValue(COMMON[1]), i2c_readDataBlock@d(COMMON[3]), i2c_write2ByteRegister@data(COMMON[2]), i2c_read2ByteRegister@result(COMMON[2]), 
		 -> i2c_read1ByteRegister@d2(COMMON[1]), i2c_write1ByteRegister@data(COMMON[1]), NULL(NULL[0]), 

    TMR1_SetInterruptHandler@InterruptHandler	PTR FTN()void  size(2) Largest target is 1
		 -> toggle_LED(), TMR1_DefaultInterruptHandler(), 

    TMR1_InterruptHandler	PTR FTN()void  size(2) Largest target is 1
		 -> toggle_LED(), TMR1_DefaultInterruptHandler(), Absolute function(), 

    S660$data_ptr	PTR unsigned char  size(1) Largest target is 4
		 -> I2C1_ReadDataBlock@reg(COMMON[1]), I2C1_ReadDataBlock@bufferBlock(COMMON[3]), I2C1_Write2ByteRegister@reg(COMMON[1]), I2C1_Write2ByteRegister@data(COMMON[2]), 
		 -> I2C1_Write1ByteRegister@reg(COMMON[1]), I2C1_Write1ByteRegister@data(COMMON[1]), I2C1_Read2ByteRegister@reg(COMMON[1]), I2C1_Read2ByteRegister@returnValue(COMMON[2]), 
		 -> I2C1_Read1ByteRegister@reg(COMMON[1]), I2C1_Read1ByteRegister@returnValue(COMMON[1]), i2c_readDataBlock@reg(COMMON[1]), i2c_readDataBlock@d(COMMON[3]), 
		 -> i2c_write2ByteRegister@reg(COMMON[1]), i2c_write2ByteRegister@data(COMMON[2]), i2c_read2ByteRegister@reg(COMMON[1]), i2c_read2ByteRegister@result(COMMON[2]), 
		 -> i2c_read1ByteRegister@reg(COMMON[1]), i2c_read1ByteRegister@d2(COMMON[1]), i2c_write1ByteRegister@reg(COMMON[1]), i2c_write1ByteRegister@data(COMMON[1]), 
		 -> NULL(NULL[0]), 

    I2C1_Status.data_ptr	PTR unsigned char  size(1) Largest target is 4
		 -> I2C1_ReadDataBlock@reg(COMMON[1]), I2C1_ReadDataBlock@bufferBlock(COMMON[3]), I2C1_Write2ByteRegister@reg(COMMON[1]), I2C1_Write2ByteRegister@data(COMMON[2]), 
		 -> I2C1_Write1ByteRegister@reg(COMMON[1]), I2C1_Write1ByteRegister@data(COMMON[1]), I2C1_Read2ByteRegister@reg(COMMON[1]), I2C1_Read2ByteRegister@returnValue(COMMON[2]), 
		 -> I2C1_Read1ByteRegister@reg(COMMON[1]), I2C1_Read1ByteRegister@returnValue(COMMON[1]), i2c_readDataBlock@reg(COMMON[1]), i2c_readDataBlock@d(COMMON[3]), 
		 -> i2c_write2ByteRegister@reg(COMMON[1]), i2c_write2ByteRegister@data(COMMON[2]), i2c_read2ByteRegister@reg(COMMON[1]), i2c_read2ByteRegister@result(COMMON[2]), 
		 -> i2c_read1ByteRegister@reg(COMMON[1]), i2c_read1ByteRegister@d2(COMMON[1]), i2c_write1ByteRegister@reg(COMMON[1]), i2c_write1ByteRegister@data(COMMON[1]), 
		 -> NULL(NULL[0]), 

    S660$callbackPayload	PTR void [6] size(1) Largest target is 4
		 -> I2C1_ReadDataBlock@bufferBlock(COMMON[3]), I2C1_Write2ByteRegister@data(COMMON[2]), I2C1_Write1ByteRegister@data(COMMON[1]), I2C1_Read2ByteRegister@returnValue(COMMON[2]), 
		 -> I2C1_Read1ByteRegister@returnValue(COMMON[1]), i2c_readDataBlock@d(COMMON[3]), i2c_write2ByteRegister@data(COMMON[2]), i2c_read2ByteRegister@result(COMMON[2]), 
		 -> i2c_read1ByteRegister@d2(COMMON[1]), i2c_write1ByteRegister@data(COMMON[1]), NULL(NULL[0]), 

    I2C1_Status.callbackPayload	PTR void [6] size(1) Largest target is 4
		 -> I2C1_ReadDataBlock@bufferBlock(COMMON[3]), I2C1_Write2ByteRegister@data(COMMON[2]), I2C1_Write1ByteRegister@data(COMMON[1]), I2C1_Read2ByteRegister@returnValue(COMMON[2]), 
		 -> I2C1_Read1ByteRegister@returnValue(COMMON[1]), i2c_readDataBlock@d(COMMON[3]), i2c_write2ByteRegister@data(COMMON[2]), i2c_read2ByteRegister@result(COMMON[2]), 
		 -> i2c_read1ByteRegister@d2(COMMON[1]), i2c_write1ByteRegister@data(COMMON[1]), NULL(NULL[0]), 

    S660$callbackTable	PTR FTN(PTR void ,)enum E360[6] size(2) Largest target is 1
		 -> I2C1_CallbackReturnReset(), I2C1_CallbackReturnStop(), Absolute function(), rdBlkRegCompleteHandler@i2c1_master_example$F177(), 
		 -> wr2RegCompleteHandler@i2c1_master_example$F166(), wr1RegCompleteHandler@i2c1_master_example$F160(), rd2RegCompleteHandler@i2c1_master_example$F154(), rd1RegCompleteHandler@i2c1_master_example$F143(), 
		 -> rdBlkRegCompleteHandler(), wr2RegCompleteHandler(), rd2RegCompleteHandler(), rd1RegCompleteHandler(), 
		 -> wr1RegCompleteHandler(), 

    I2C1_Status.callbackTable	PTR FTN(PTR void ,)enum E360[6] size(2) Largest target is 1
		 -> I2C1_CallbackReturnReset(), I2C1_CallbackReturnStop(), Absolute function(), rdBlkRegCompleteHandler@i2c1_master_example$F177(), 
		 -> wr2RegCompleteHandler@i2c1_master_example$F166(), wr1RegCompleteHandler@i2c1_master_example$F160(), rd2RegCompleteHandler@i2c1_master_example$F154(), rd1RegCompleteHandler@i2c1_master_example$F143(), 
		 -> rdBlkRegCompleteHandler(), wr2RegCompleteHandler(), rd2RegCompleteHandler(), rd1RegCompleteHandler(), 
		 -> wr1RegCompleteHandler(), 

    i2c1_fsmStateTable	const PTR FTN()enum E2861[16] size(2) Largest target is 1
		 -> I2C1_DO_ADDRESS_NACK(), I2C1_DO_RESET(), I2C1_DO_RX_NACK_RESTART(), I2C1_DO_RX_NACK_STOP(), 
		 -> I2C1_DO_RX_ACK(), I2C1_DO_SEND_STOP(), I2C1_DO_SEND_RESTART(), I2C1_DO_SEND_RESTART_WRITE(), 
		 -> I2C1_DO_SEND_RESTART_READ(), I2C1_DO_TX_EMPTY(), I2C1_DO_RCEN(), I2C1_DO_RX(), 
		 -> I2C1_DO_TX(), I2C1_DO_SEND_ADR_WRITE(), I2C1_DO_SEND_ADR_READ(), I2C1_DO_IDLE(), 

    TMR4_SetInterruptHandler@InterruptHandler	PTR FTN()void  size(2) Largest target is 1
		 -> TMR4_DefaultInterruptHandler(), 

    TMR4_InterruptHandler	PTR FTN()void  size(2) Largest target is 1
		 -> Absolute function(), TMR4_DefaultInterruptHandler(), 

    rdBlkRegCompleteHandler@i2c1_master_example$F177@ptr.data	PTR unsigned char  size(1) Largest target is 0

    bufferBlock.data	PTR unsigned char  size(1) Largest target is 0

    d.data	PTR unsigned char  size(1) Largest target is 0

    S74$data	PTR unsigned char  size(1) Largest target is 0

    rdBlkRegCompleteHandler@p.data	PTR unsigned char  size(1) Largest target is 0


Critical Paths under _main in COMMON

    None.

Critical Paths under _INTERRUPT_InterruptManager in COMMON

    _TMR1_ISR->_toggle_LED
    _toggle_LED->___llmod

Critical Paths under _main in BANK0

    _main->_TMR1_SetInterruptHandler
    _TMR4_Initialize->_TMR4_SetInterruptHandler
    _TMR1_Initialize->_TMR1_SetInterruptHandler

Critical Paths under _INTERRUPT_InterruptManager in BANK0

    None.

Critical Paths under _main in BANK1

    None.

Critical Paths under _INTERRUPT_InterruptManager in BANK1

    None.

Critical Paths under _main in BANK2

    None.

Critical Paths under _INTERRUPT_InterruptManager in BANK2

    None.

Critical Paths under _main in BANK3

    None.

Critical Paths under _INTERRUPT_InterruptManager in BANK3

    None.

Critical Paths under _main in BANK4

    None.

Critical Paths under _INTERRUPT_InterruptManager in BANK4

    None.

Call Graph Tables:

 ---------------------------------------------------------------------------------
 (Depth) Function   	        Calls       Base Space   Used Autos Params    Refs
 ---------------------------------------------------------------------------------
 (0) _main                                                 0     0      0     446
                  _SYSTEM_Initialize
           _TMR1_SetInterruptHandler
                    _TMR1_StartTimer
 ---------------------------------------------------------------------------------
 (1) _TMR1_StartTimer                                      0     0      0       0
 ---------------------------------------------------------------------------------
 (1) _SYSTEM_Initialize                                    0     0      0     272
                   _EPWM1_Initialize
                    _I2C1_Initialize
              _OSCILLATOR_Initialize
             _PIN_MANAGER_Initialize
                    _TMR1_Initialize
                    _TMR2_Initialize
                    _TMR4_Initialize
                     _WDT_Initialize
 ---------------------------------------------------------------------------------
 (2) _WDT_Initialize                                       0     0      0       0
 ---------------------------------------------------------------------------------
 (2) _TMR4_Initialize                                      0     0      0      98
           _TMR4_SetInterruptHandler
 ---------------------------------------------------------------------------------
 (3) _TMR4_SetInterruptHandler                             2     0      2      98
                                              0 BANK0      2     0      2
 ---------------------------------------------------------------------------------
 (2) _TMR2_Initialize                                      0     0      0       0
 ---------------------------------------------------------------------------------
 (2) _TMR1_Initialize                                      0     0      0     174
           _TMR1_SetInterruptHandler
 ---------------------------------------------------------------------------------
 (1) _TMR1_SetInterruptHandler                             2     0      2     174
                                              0 BANK0      2     0      2
 ---------------------------------------------------------------------------------
 (2) _PIN_MANAGER_Initialize                               0     0      0       0
 ---------------------------------------------------------------------------------
 (2) _OSCILLATOR_Initialize                                0     0      0       0
 ---------------------------------------------------------------------------------
 (2) _I2C1_Initialize                                      0     0      0       0
 ---------------------------------------------------------------------------------
 (2) _EPWM1_Initialize                                     0     0      0       0
 ---------------------------------------------------------------------------------
 Estimated maximum stack depth 3
 ---------------------------------------------------------------------------------
 (Depth) Function   	        Calls       Base Space   Used Autos Params    Refs
 ---------------------------------------------------------------------------------
 (4) _INTERRUPT_InterruptManager                           0     0      0     551
                           _TMR1_ISR
                           _TMR4_ISR
 ---------------------------------------------------------------------------------
 (5) _TMR4_ISR                                             0     0      0       0
                   Absolute function *
       _TMR4_DefaultInterruptHandler *
 ---------------------------------------------------------------------------------
 (6) _TMR4_DefaultInterruptHandler                         0     0      0       0
 ---------------------------------------------------------------------------------
 (5) _TMR1_ISR                                             0     0      0     551
                   Absolute function *
       _TMR1_DefaultInterruptHandler *
                    _TMR1_WriteTimer
                         _toggle_LED *
 ---------------------------------------------------------------------------------
 (6) _toggle_LED                                           1     1      0     311
                                             10 COMMON     1     1      0
                            ___llmod
 ---------------------------------------------------------------------------------
 (7) ___llmod                                             10     2      8     311
                                              0 COMMON    10     2      8
 ---------------------------------------------------------------------------------
 (6) _TMR1_WriteTimer                                      2     0      2     240
                                              0 COMMON     2     0      2
 ---------------------------------------------------------------------------------
 (6) _TMR1_DefaultInterruptHandler                         0     0      0       0
 ---------------------------------------------------------------------------------
 (6) Absolute function(Fake)                               0     0      0       0
 ---------------------------------------------------------------------------------
 Estimated maximum stack depth 7
 ---------------------------------------------------------------------------------

 Call Graph Graphs:

 _main (ROOT)
   _SYSTEM_Initialize
     _EPWM1_Initialize
     _I2C1_Initialize
     _OSCILLATOR_Initialize
     _PIN_MANAGER_Initialize
     _TMR1_Initialize
       _TMR1_SetInterruptHandler
     _TMR2_Initialize
     _TMR4_Initialize
       _TMR4_SetInterruptHandler
     _WDT_Initialize
   _TMR1_SetInterruptHandler
   _TMR1_StartTimer

 _INTERRUPT_InterruptManager (ROOT)
   _TMR1_ISR
     Absolute function(Fake) *
     _TMR1_DefaultInterruptHandler *
     _TMR1_WriteTimer *
     _toggle_LED *
       ___llmod
   _TMR4_ISR
     Absolute function(Fake) *
     _TMR4_DefaultInterruptHandler *

 Address spaces:
Name               Size   Autos  Total    Cost      Usage
BIGRAM             170      0       0       0        0.0%
EEDATA             100      0       0       0        0.0%
NULL                 0      0       0       0        0.0%
CODE                 0      0       0       0        0.0%
BITCOMMON            E      0       0       1        0.0%
BITSFR0              0      0       0       1        0.0%
SFR0                 0      0       0       1        0.0%
COMMON               E      B       D       2       92.9%
BITSFR1              0      0       0       2        0.0%
SFR1                 0      0       0       2        0.0%
BITSFR2              0      0       0       3        0.0%
SFR2                 0      0       0       3        0.0%
STACK                0      0       0       3        0.0%
BITSFR3              0      0       0       4        0.0%
SFR3                 0      0       0       4        0.0%
ABS                  0      0      39       4        0.0%
BITBANK0            50      0       0       5        0.0%
BITSFR4              0      0       0       5        0.0%
SFR4                 0      0       0       5        0.0%
BANK0               50      2      2C       6       55.0%
BITSFR5              0      0       0       6        0.0%
SFR5                 0      0       0       6        0.0%
BITBANK1            50      0       0       7        0.0%
BITSFR6              0      0       0       7        0.0%
SFR6                 0      0       0       7        0.0%
BANK1               50      0       0       8        0.0%
BITSFR7              0      0       0       8        0.0%
SFR7                 0      0       0       8        0.0%
BITBANK2            50      0       0       9        0.0%
BITSFR8              0      0       0       9        0.0%
SFR8                 0      0       0       9        0.0%
BANK2               50      0       0      10        0.0%
BITSFR9              0      0       0      10        0.0%
SFR9                 0      0       0      10        0.0%
BITBANK3            50      0       0      11        0.0%
BITSFR10             0      0       0      11        0.0%
SFR10                0      0       0      11        0.0%
BANK3               50      0       0      12        0.0%
BITSFR11             0      0       0      12        0.0%
SFR11                0      0       0      12        0.0%
BITBANK4            30      0       0      13        0.0%
BITSFR12             0      0       0      13        0.0%
SFR12                0      0       0      13        0.0%
BANK4               30      0       0      14        0.0%
BITSFR13             0      0       0      14        0.0%
SFR13                0      0       0      14        0.0%
BITSFR14             0      0       0      15        0.0%
SFR14                0      0       0      15        0.0%
DATA                 0      0      39      15        0.0%
BITSFR15             0      0       0      16        0.0%
SFR15                0      0       0      16        0.0%
BITSFR16             0      0       0      17        0.0%
SFR16                0      0       0      17        0.0%
BITSFR17             0      0       0      18        0.0%
SFR17                0      0       0      18        0.0%
BITSFR18             0      0       0      19        0.0%
SFR18                0      0       0      19        0.0%
BITSFR19             0      0       0      20        0.0%
SFR19                0      0       0      20        0.0%
BITSFR20             0      0       0      21        0.0%
SFR20                0      0       0      21        0.0%
BITSFR21             0      0       0      22        0.0%
SFR21                0      0       0      22        0.0%
BITSFR22             0      0       0      23        0.0%
SFR22                0      0       0      23        0.0%
BITSFR23             0      0       0      24        0.0%
SFR23                0      0       0      24        0.0%
BITSFR24             0      0       0      25        0.0%
SFR24                0      0       0      25        0.0%
BITSFR25             0      0       0      26        0.0%
SFR25                0      0       0      26        0.0%
BITSFR26             0      0       0      27        0.0%
SFR26                0      0       0      27        0.0%
BITSFR27             0      0       0      28        0.0%
SFR27                0      0       0      28        0.0%
BITSFR28             0      0       0      29        0.0%
SFR28                0      0       0      29        0.0%
BITSFR29             0      0       0      30        0.0%
SFR29                0      0       0      30        0.0%
BITSFR30             0      0       0      31        0.0%
SFR30                0      0       0      31        0.0%
BITSFR31             0      0       0      32        0.0%
SFR31                0      0       0      32        0.0%


Microchip Technology PIC Macro Assembler V2.32 build 20210201212658 
Symbol Table                                                                                   Sat Jun 19 09:55:33 2021

                                             l301 01C4                                               l222 014A  
                                             l252 011A                                               l255 01B8  
                                             l258 01D2                                               l436 01A9  
                                             l279 0174                                               l745 0133  
                                             l683 01A0                                               l748 01D5  
                                             l775 01CA                                               l699 01B1  
                                             _PR2 001B                                               _PR4 0416  
                                             u790 00FE                                               u791 00FD  
                                 _timer1ReloadVal 007B                                   _TMR2_Initialize 01AA  
                                             wreg 0009                              _I2C1_DO_RX_NACK_STOP 0000  
                                            l2321 01C5                                              l2401 0167  
                                            l2411 01AE                                              l2403 0169  
                                            l2421 0121                                              l2413 01AF  
                                            l2405 0171                                              l2351 013D  
                                            l2343 0134                                              l2423 0122  
                                            l2415 011B                                              l2407 01AA  
                                            l2319 01BF                                              l2361 0147  
                                            l2353 0140                                              l2345 0137  
                                            l2425 0126                                              l2417 011D  
                                            l2409 01AD                                              l2371 01A8  
                                            l2363 0149                                              l2355 0142  
                                            l2347 0138                                              l2427 0128  
                                            l2419 011F                                              l2381 0194  
                                            l2365 01A1                                              l2373 01B2  
                                            l2357 0144                                              l2349 013B  
                                            l2429 0130                                              l2453 0102  
                                            l2391 019D                                              l2383 0197  
                                            l2367 01A3                                              l2375 01B5  
                                            l2359 0145                                              l2393 019E  
                                            l2385 0198                                              l2369 01A5  
                                            l2377 01B6                                              l2387 019A  
                                            l2395 0161                                              l2379 01CF  
                                            l2491 00F6                                              l2389 019C  
                                            l2397 0164                                              l2469 01D3  
                                            l2493 00F7                                              l2485 00E8  
                                            l2399 0165                                              l2495 00F8  
                                            l2487 00EB                                              l2497 00FE  
                                            l2489 00EE                                              _LATA 010C  
                                            _LATB 010D                                              _TMR2 001A  
                                            _TMR4 0415                                              _WPUA 020C  
                                            _WPUB 020D                                              _main 00E8  
                                            fsr0h 0005                                              indf0 0000  
                                            fsr0l 0004                                              btemp 007E  
                                            start 0028                        ??_TMR1_SetInterruptHandler 004C  
                      ??_TMR4_SetInterruptHandler 004C                    __size_of_OSCILLATOR_Initialize 0007  
                   __end_of_OSCILLATOR_Initialize 01B9                                             ?_main 0070  
                                 _TMR1_StartTimer 01D3                                             _T1CON 0018  
                                 __end_of___llmod 0090                                             _T2CON 001C  
                                           _T4CON 0417                                             i1l304 01D6  
                                           i1l324 0018                                             i1l325 0026  
                                           i1l329 0026                                             i1l298 0193  
                                           i1l772 0160                                             i1l759 0185  
                                           i1l778 01D7                                             i1l798 00C7  
                      __end_of_i2c1_fsmStateTable 00E8                                             _TMR1H 0017  
                                           _TMR1L 0016                                             u70_20 017A  
                                           u70_21 0179                                             u71_20 00C5  
                                           u71_21 00C4                                             u64_20 004E  
                                           u72_20 018E                                             u64_21 004D  
                                           u72_21 018D                                             u73_20 015B  
                                           u73_21 015A                                             _TRISA 008C  
                                           _TRISB 008D                                             u65_25 0052  
                                           u66_20 0060                                             u74_20 000A  
                                           u66_21 005F                                             u74_21 0009  
                                           u67_20 0072                                             u75_20 000F  
                                           u67_21 0071                                             u75_21 000E  
                                           u67_25 006E                                             u76_20 0014  
                                           u76_21 0013                                             u68_25 007B  
                                           u69_20 0087                                             u77_20 001D  
                                           u69_21 0086                                             u77_21 001C  
                                           u78_20 0022                                             u78_21 0021  
                                 _TMR4_Initialize 0161                                 ??_I2C1_Initialize 004A  
                                __end_of_TMR1_ISR 0161                                  __end_of_TMR4_ISR 0194  
                                  _WDT_Initialize 01CF                           __end_of_TMR1_Initialize 0134  
                                           pclath 000A                                             status 0003  
                                           wtemp0 007E                                   _TMR1_WriteTimer 0175  
                                 __initialization 002A                                      __end_of_main 0102  
                         __end_of_TMR2_Initialize 01B2                       ?_INTERRUPT_InterruptManager 0070  
                                          ??_main 004C                            __end_of_WDT_Initialize 01D3  
                                ___llmod@dividend 0074                                            _CCPR1H 0292  
                                          _CCPR1L 0291                                            _ANSELA 018C  
                                          _ANSELB 018D                                            _BORCON 0116  
                                          _T1GCON 0019                           TMR1_WriteTimer@timerVal 0070  
                                          i1l1187 008F                                            i1l2331 0060  
                                          i1l2323 0046                                            i1l2333 0072  
                                          i1l2325 004E                                            i1l2431 0175  
                                          i1l2335 007A                                            i1l2327 0051  
                                          i1l2433 017A                                            i1l2441 0181  
                                          i1l2337 0081                                            i1l2329 005C  
                                          i1l2443 0183                                            i1l2435 017B  
                                          i1l2339 0087                                            i1l2451 00C5  
                                          i1l2437 017D                                            i1l2445 0090  
                                          i1l2461 014B                                            i1l2439 017F  
                                          i1l2447 009C                                            i1l2463 014D  
                                          i1l2455 0186                                            i1l2471 0006  
                                          i1l2449 00BD                                            i1l2465 0154  
                                          i1l2457 0188                                            i1l2481 0022  
                                          i1l2473 000A                                            i1l2467 015B  
                                          i1l2459 018E                                            i1l2475 000F  
                                          i1l2477 0014                                            i1l2479 001D  
                                          _OSCCON 0099                                            _WDTCON 0097  
                                _I2C1_DO_TX_EMPTY 0000              __end_of_TMR1_DefaultInterruptHandler 01D8  
           __size_of_TMR1_DefaultInterruptHandler 0001                      _TMR1_DefaultInterruptHandler 01D7  
                                    _CCPTMRS0bits 029E                           __end_of_TMR1_StartTimer 01D6  
                                       ??___llmod 0078                           __end_of_TMR4_Initialize 0175  
            __end_of_TMR4_DefaultInterruptHandler 01D7             __size_of_TMR4_DefaultInterruptHandler 0001  
                    _TMR4_DefaultInterruptHandler 01D6                             _I2C1_DO_SEND_ADR_READ 0000  
                                 ?_WDT_Initialize 0070          TMR1_SetInterruptHandler@InterruptHandler 004A  
        TMR4_SetInterruptHandler@InterruptHandler 004A                           __end_of_TMR1_WriteTimer 0186  
                         _I2C1_DO_RX_NACK_RESTART 0000                                  ?_TMR1_Initialize 0070  
                               _SYSTEM_Initialize 0102                           __end_of__initialization 0042  
                              ?_SYSTEM_Initialize 0070                           _rdBlkRegCompleteHandler 0000  
                               ?_EPWM1_Initialize 0070                                    __pcstackCOMMON 0070  
                                    __pidataBANK0 01CB                               ??_SYSTEM_Initialize 004C  
                                       ?_TMR1_ISR 0070                     ?_TMR1_DefaultInterruptHandler 0070  
                                       ?_TMR4_ISR 0070                                ??_EPWM1_Initialize 004A  
                                ?_TMR2_Initialize 0070                                    _OPTION_REGbits 0095  
                   ?_TMR4_DefaultInterruptHandler 0070                         __end_of_SYSTEM_Initialize 011B  
                                      __pbssBANK0 0020                                        __pnvCOMMON 007B  
                           _TMR4_InterruptHandler 0044                             _rd1RegCompleteHandler 0000  
                               _I2C1_DO_SEND_STOP 0000                             _wr1RegCompleteHandler 0000  
                                      __pmaintext 00E8                                  ?_TMR1_StartTimer 0070  
                                      ??_TMR1_ISR 007B                                        ??_TMR4_ISR 0070  
                                      __pintentry 0004                                   _I2C1_Initialize 01A1  
                                         _CCP1CON 0293                                           _ECCP1AS 0295  
                                ?_TMR4_Initialize 0070                                           _APFCON0 011D  
                                         _APFCON1 011E                                           _OSCTUNE 0098  
                                         _PWM1CON 0294                                           _SSP1ADD 0212  
                                         _SSP1BUF 0211                                  ?_TMR1_WriteTimer 0070  
                              _i2c1_fsmStateTable 00C8    _rd1RegCompleteHandler@i2c1_master_example$F143 0000  
  _wr1RegCompleteHandler@i2c1_master_example$F160 0000    _rd2RegCompleteHandler@i2c1_master_example$F154 0000  
  _wr2RegCompleteHandler@i2c1_master_example$F166 0000  _rdBlkRegCompleteHandler@i2c1_master_example$F177 0000  
                                         ___llmod 0046                                           __ptext1 01D3  
                                         __ptext2 0102                                           __ptext3 01CF  
                                         __ptext4 0161                                           __ptext5 01BF  
                                         __ptext6 01AA                                           __ptext7 011B  
                                         __ptext8 01C5                                           __ptext9 0134  
                  ??_TMR1_DefaultInterruptHandler 0070                                         _T1CONbits 0018  
                                         _counter 003D                             _OSCILLATOR_Initialize 01B2  
                                       _T2CONbits 001C                 __size_of_TMR1_SetInterruptHandler 0006  
                                       _T4CONbits 0417                          ??_PIN_MANAGER_Initialize 004A  
               __size_of_TMR4_SetInterruptHandler 0006                         ?_TMR1_SetInterruptHandler 004A  
                       ?_TMR4_SetInterruptHandler 004A                        __size_of_SYSTEM_Initialize 0019  
                                         clrloop0 01BA                              end_of_initialization 0042  
                  ??_TMR4_DefaultInterruptHandler 0070                            _I2C1_DO_SEND_ADR_WRITE 0000  
                         __end_of_I2C1_Initialize 01AA                                       _I2C1_Status 0020  
                      _I2C1_DO_SEND_RESTART_WRITE 0000                                  ??_WDT_Initialize 004A  
                                      _toggle_LED 0090                                    _I2C1_DO_RX_ACK 0000  
                               __size_of_TMR1_ISR 0016                                 __size_of_TMR4_ISR 000E  
                          ?_OSCILLATOR_Initialize 0070                               start_initialization 002A  
                       __size_of_EPWM1_Initialize 000D                   __size_of_PIN_MANAGER_Initialize 0017  
                                 ___llmod@divisor 0070                                   ___llmod@counter 0079  
                                ?_I2C1_Initialize 0070                          __size_of_TMR1_Initialize 0019  
                                     __pdataBANK0 0046                                       ?_toggle_LED 0070  
                            _I2C1_DO_SEND_RESTART 0000                                         ___latbits 0001  
                                   __pcstackBANK0 004A                          __size_of_TMR2_Initialize 0008  
                                       __pnvBANK0 0042                             _rd2RegCompleteHandler 0000  
                          _PIN_MANAGER_Initialize 0134                             _wr2RegCompleteHandler 0000  
                __end_of_TMR1_SetInterruptHandler 01CB                  __end_of_TMR4_SetInterruptHandler 01C5  
                                        ?___llmod 0070                      ??_INTERRUPT_InterruptManager 007B  
                        __size_of_TMR1_StartTimer 0003                          __size_of_TMR4_Initialize 0014  
                                        _LATAbits 010C                                        _I2C1_DO_RX 0000  
                                      _I2C1_DO_TX 0000                                         clear_ram0 01B9  
                                        _PIE1bits 0091                                          _PIE3bits 0093  
                        __size_of_TMR1_WriteTimer 0011                               __size_of_toggle_LED 0038  
             __size_of_INTERRUPT_InterruptManager 0024                                          _PIR1bits 0011  
                                        _PIR2bits 0012                                          _PIR3bits 0013  
                       _I2C1_DO_SEND_RESTART_READ 0000                                          _SSP1CON1 0215  
                                        _SSP1CON2 0216                                          _TMR1_ISR 014B  
                                        _TMR4_ISR 0186                                          _PSTR1CON 0296  
                                        _SSP1STAT 0214                                 ??_TMR1_Initialize 004C  
                                _EPWM1_Initialize 0194                                     _I2C1_DO_RESET 0000  
                               ??_TMR2_Initialize 004A                           ??_OSCILLATOR_Initialize 004A  
                                __size_of___llmod 004A                          _TMR1_SetInterruptHandler 01C5  
                        _TMR4_SetInterruptHandler 01BF                             _TMR1_InterruptHandler 0042  
                                        __ptext10 01B2                                          __ptext11 01A1  
                                        __ptext20 0175                                          __ptext12 0194  
                                      _T1GCONbits 0019                                          __ptext14 0186  
                                        __ptext15 01D6                                          __ptext16 014B  
                                        __ptext17 01D7                                          __ptext18 0090  
                                        __ptext19 0046                                      _SSP1CON1bits 0215  
                                    _SSP1CON2bits 0216                                 ??_TMR1_StartTimer 004A  
                        _I2C1_CallbackReturnReset 0000                                 ??_TMR4_Initialize 004C  
                                   __size_of_main 001A                                          int$flags 007E  
              __end_of_INTERRUPT_InterruptManager 0028                        _INTERRUPT_InterruptManager 0004  
                                    _SSP1STATbits 0214                                 ??_TMR1_WriteTimer 0072  
                                    _I2C1_DO_IDLE 0000                                      _I2C1_DO_RCEN 0000  
                                    ??_toggle_LED 007A                                        _INTCONbits 000B  
                                    _time_elapsed 0041                           __size_of_WDT_Initialize 0004  
                                        intlevel1 0000                           ?_PIN_MANAGER_Initialize 0070  
                         _I2C1_CallbackReturnStop 0000                                      _waiting_time 0046  
                            _I2C1_DO_ADDRESS_NACK 0000                                __end_of_toggle_LED 00C8  
                        __size_of_I2C1_Initialize 0009                                     __pstringtext1 00C8  
                  __end_of_PIN_MANAGER_Initialize 014B                                   _TMR1_Initialize 011B  
                        __end_of_EPWM1_Initialize 01A1  
